ARM GAS  C:\Users\liziy\AppData\Local\Temp\cco2NPV0.s 			page 1


   1              		.cpu cortex-m0
   2              		.fpu softvfp
   3              		.eabi_attribute 20, 1
   4              		.eabi_attribute 21, 1
   5              		.eabi_attribute 23, 3
   6              		.eabi_attribute 24, 1
   7              		.eabi_attribute 25, 1
   8              		.eabi_attribute 26, 1
   9              		.eabi_attribute 30, 1
  10              		.eabi_attribute 34, 0
  11              		.eabi_attribute 18, 4
  12              		.code	16
  13              		.file	"BLE_Process.c"
  14              		.text
  15              	.Ltext0:
  16              		.cfi_sections	.debug_frame
  17              		.section	.text.SendDataOverSenMotionBurstNotification,"ax",%progbits
  18              		.align	2
  19              		.global	SendDataOverSenMotionBurstNotification
  20              		.code	16
  21              		.thumb_func
  22              		.type	SendDataOverSenMotionBurstNotification, %function
  23              	SendDataOverSenMotionBurstNotification:
  24              	.LFB36:
  25              		.file 1 ".\\BLE_Process.c"
   1:.\BLE_Process.c **** /* ========================================
   2:.\BLE_Process.c ****  *
   3:.\BLE_Process.c ****  * Copyright Sen Li, Dec 2015
   4:.\BLE_Process.c ****  * All Rights Reserved
   5:.\BLE_Process.c ****  * UNPUBLISHED, LICENSED SOFTWARE.
   6:.\BLE_Process.c ****  *
   7:.\BLE_Process.c ****  * CONFIDENTIAL AND PROPRIETARY INFORMATION
   8:.\BLE_Process.c ****  * WHICH IS THE PROPERTY OF your company.
   9:.\BLE_Process.c ****  *
  10:.\BLE_Process.c ****  * ========================================
  11:.\BLE_Process.c **** */
  12:.\BLE_Process.c **** #include <project.h>
  13:.\BLE_Process.c **** #include "BLE_Process.h"
  14:.\BLE_Process.c **** 
  15:.\BLE_Process.c **** /* Status flag for the Stack Busy state. This flag is used to notify the application 
  16:.\BLE_Process.c **** * whether there is stack buffer free to push more data or not */
  17:.\BLE_Process.c **** uint8 busyStatus = 0;
  18:.\BLE_Process.c **** 
  19:.\BLE_Process.c **** uint8 deviceConnected = FALSE;
  20:.\BLE_Process.c **** uint8 motionBurstStartNotification = FALSE;//sendCapSenseSliderNotifications
  21:.\BLE_Process.c **** uint8 imageBurstStartNotification = FALSE;
  22:.\BLE_Process.c **** 
  23:.\BLE_Process.c **** int8 motionReadTimes = 0;
  24:.\BLE_Process.c **** 
  25:.\BLE_Process.c **** void GeneralEventHandler(uint32 event, void * eventParam) { 
  26:.\BLE_Process.c **** 	/* Structure to store data written by Client */ 
  27:.\BLE_Process.c **** 	CYBLE_GATTS_WRITE_REQ_PARAM_T *wrReqParam;
  28:.\BLE_Process.c **** 	
  29:.\BLE_Process.c **** 	/* 'RGBledData[]' is an array to store 4 bytes of RGB LED data*/ 
  30:.\BLE_Process.c **** 	uint8 RGBledData[RGB_CHAR_DATA_LEN]; 
  31:.\BLE_Process.c **** 	
  32:.\BLE_Process.c **** 	switch(event) { 
ARM GAS  C:\Users\liziy\AppData\Local\Temp\cco2NPV0.s 			page 2


  33:.\BLE_Process.c **** 		case CYBLE_EVT_STACK_ON: 
  34:.\BLE_Process.c **** 			/* This event is generated when BLE stack is ON */
  35:.\BLE_Process.c **** 			/* BLE stack is on. Start BLE advertisement */ 
  36:.\BLE_Process.c **** 			CyBle_GappStartAdvertisement(CYBLE_ADVERTISING_FAST);
  37:.\BLE_Process.c **** 			break;
  38:.\BLE_Process.c **** 		
  39:.\BLE_Process.c **** 		case CYBLE_EVT_GAPP_ADVERTISEMENT_START_STOP:
  40:.\BLE_Process.c **** 			/* This event is generated whenever Advertisement starts or stops. 
  41:.\BLE_Process.c **** 			The exact state of advertisement is obtained by CyBle_State() */ 
  42:.\BLE_Process.c **** 			if(CyBle_GetState() == CYBLE_STATE_DISCONNECTED) { 
  43:.\BLE_Process.c **** 				CyBle_GappStartAdvertisement(CYBLE_ADVERTISING_FAST); 
  44:.\BLE_Process.c **** 			} break;
  45:.\BLE_Process.c **** 		
  46:.\BLE_Process.c **** 		case CYBLE_EVT_GAP_DEVICE_DISCONNECTED: 
  47:.\BLE_Process.c **** 			/* This event is generated at GAP disconnection. */ 
  48:.\BLE_Process.c **** 			/* Restart advertisement */ 
  49:.\BLE_Process.c **** 			CyBle_GappStartAdvertisement(CYBLE_ADVERTISING_FAST);
  50:.\BLE_Process.c **** 			break;
  51:.\BLE_Process.c **** 
  52:.\BLE_Process.c **** 		/**********************************************************
  53:.\BLE_Process.c ****         *                       GATT Events
  54:.\BLE_Process.c ****         ***********************************************************/
  55:.\BLE_Process.c ****         case CYBLE_EVT_GATT_CONNECT_IND:
  56:.\BLE_Process.c **** 			/* This event is received when device is connected over GATT level */
  57:.\BLE_Process.c **** 			
  58:.\BLE_Process.c **** 			/* Update attribute handle on GATT Connection*/
  59:.\BLE_Process.c ****             cyBle_connHandle = *(CYBLE_CONN_HANDLE_T *)eventParam;
  60:.\BLE_Process.c **** 			
  61:.\BLE_Process.c **** 			/* This flag is used in application to check connection status */
  62:.\BLE_Process.c **** 			deviceConnected = TRUE;
  63:.\BLE_Process.c **** 			break;
  64:.\BLE_Process.c **** 		
  65:.\BLE_Process.c **** 		case CYBLE_EVT_GATT_DISCONNECT_IND: 
  66:.\BLE_Process.c **** 			/* This event is generated at GATT disconnection. */ 
  67:.\BLE_Process.c **** 			/* Update deviceConnected flag*/
  68:.\BLE_Process.c **** 			deviceConnected = FALSE;
  69:.\BLE_Process.c **** 			
  70:.\BLE_Process.c **** 			/* Reset the color values*/
  71:.\BLE_Process.c **** 			RGBledData[RED_INDEX] 		= FALSE;
  72:.\BLE_Process.c **** 			RGBledData[GREEN_INDEX] 	= FALSE;
  73:.\BLE_Process.c **** 			RGBledData[BLUE_INDEX] 		= FALSE;
  74:.\BLE_Process.c **** 			RGBledData[INTENSITY_INDEX] = FALSE;
  75:.\BLE_Process.c **** 			
  76:.\BLE_Process.c **** 			/* Switch off LEDs */
  77:.\BLE_Process.c **** 			UpdateRGBLED(RGBledData, sizeof(RGBledData));
  78:.\BLE_Process.c **** 			
  79:.\BLE_Process.c **** 			/* Register the new color in GATT DB*/
  80:.\BLE_Process.c **** 			UpdateRGBcharacteristic(RGBledData, sizeof(RGBledData), CYBLE_RGB_LED_RGB_LED_CONTROL_CHAR_HANDL
  81:.\BLE_Process.c **** 			
  82:.\BLE_Process.c **** 			/* close motionBurstService*/
  83:.\BLE_Process.c **** 					
  84:.\BLE_Process.c **** 			motionBurstStartNotification = FALSE;
  85:.\BLE_Process.c **** 			imageBurstStartNotification = FALSE;
  86:.\BLE_Process.c **** 			SenDeselectChip();	motionReadTimes = 0;
  87:.\BLE_Process.c **** 			endMotionBurstCharacteristic();
  88:.\BLE_Process.c **** 			endImageBurstCharacteristic();
  89:.\BLE_Process.c **** 			
ARM GAS  C:\Users\liziy\AppData\Local\Temp\cco2NPV0.s 			page 3


  90:.\BLE_Process.c **** 			break;
  91:.\BLE_Process.c **** 		   	
  92:.\BLE_Process.c **** 			
  93:.\BLE_Process.c **** 			
  94:.\BLE_Process.c **** 		case CYBLE_EVT_GATTS_WRITE_REQ: 
  95:.\BLE_Process.c **** 			/* This event is generated when the connected Central device sends a Write request. */ 
  96:.\BLE_Process.c **** 			/* The parameter ‘eventParam’ contains the data written */ 
  97:.\BLE_Process.c **** 			
  98:.\BLE_Process.c **** 			/* Extract the Write data sent by Client */ 
  99:.\BLE_Process.c **** 			wrReqParam = (CYBLE_GATTS_WRITE_REQ_PARAM_T *) eventParam; 
 100:.\BLE_Process.c **** 			
 101:.\BLE_Process.c **** 			/* If the attribute handle of the characteristic written to 
 102:.\BLE_Process.c **** 			 * is equal to that of RGB_LED characteristic, then extract the RGB LED data */ 
 103:.\BLE_Process.c **** 			if(CYBLE_RGB_LED_RGB_LED_CONTROL_CHAR_HANDLE == wrReqParam->handleValPair.attrHandle) { 
 104:.\BLE_Process.c **** 				/* Store RGB LED data in local array */ 
 105:.\BLE_Process.c **** 				RGBledData[RED_INDEX] = wrReqParam->handleValPair.value.val[RED_INDEX];
 106:.\BLE_Process.c **** 				RGBledData[GREEN_INDEX] = wrReqParam->handleValPair.value.val[GREEN_INDEX];
 107:.\BLE_Process.c **** 				RGBledData[BLUE_INDEX] = wrReqParam->handleValPair.value.val[BLUE_INDEX];
 108:.\BLE_Process.c **** 				RGBledData[INTENSITY_INDEX] = wrReqParam->handleValPair.value.val[INTENSITY_INDEX];
 109:.\BLE_Process.c **** 				
 110:.\BLE_Process.c **** 				/* Update the PrISM component density value to represent color */ 
 111:.\BLE_Process.c **** 				UpdateRGBLED(RGBledData, sizeof(RGBledData)); 
 112:.\BLE_Process.c **** 				
 113:.\BLE_Process.c **** 				/* Update the GATT DB for RGB LED read characteristics*/ 
 114:.\BLE_Process.c **** 				UpdateRGBcharacteristic(RGBledData, sizeof(RGBledData), CYBLE_RGB_LED_RGB_LED_CONTROL_CHAR_HAND
 115:.\BLE_Process.c **** 			}
 116:.\BLE_Process.c **** 			/* Check if the returned handle is matching to CCCD attribute */
 117:.\BLE_Process.c **** 			/* Sen Motion Burst Service */
 118:.\BLE_Process.c **** 			else if(CYBLE_SENMOTIONBURST_MOTIONBURST_CLIENT_CHARACTERISTIC_CONFIGURATION_DESC_HANDLE == wrRe
 119:.\BLE_Process.c **** 				/* Only the first and second lowest significant bit can be 
 120:.\BLE_Process.c **** 				* set when writing on CCCD. If any other bit is set, then send error code */
 121:.\BLE_Process.c **** 				if(FALSE == (wrReqParam->handleValPair.value.val [CYBLE_SENMOTIONBURST_MOTIONBURST_CLIENT_CHARA
 122:.\BLE_Process.c **** 								& (~CCCD_VALID_BIT_MASK))) {
 123:.\BLE_Process.c **** 					/* Set flag for application to know status of notifications. 
 124:.\BLE_Process.c **** 					* Only one byte is read as it contains the set value. */
 125:.\BLE_Process.c **** 					motionBurstStartNotification = wrReqParam->handleValPair.value.val [CYBLE_SENMOTIONBURST_MOTIO
 126:.\BLE_Process.c **** 					if (TRUE == motionBurstStartNotification)	
 127:.\BLE_Process.c **** 							SenReset();
 128:.\BLE_Process.c **** 					else	{	SenDeselectChip(); motionReadTimes = 0;	}
 129:.\BLE_Process.c **** 					/* Update GATT DB with latest CCCD value */ 
 130:.\BLE_Process.c **** 					CyBle_GattsWriteAttributeValue(&wrReqParam->handleValPair, FALSE, &cyBle_connHandle, CYBLE_GAT
 131:.\BLE_Process.c **** 				} else { 
 132:.\BLE_Process.c **** 					/* Send error response for Invalid PDU against Write * request */
 133:.\BLE_Process.c **** 					CYBLE_GATTS_ERR_PARAM_T err_param;
 134:.\BLE_Process.c **** 					err_param.opcode = CYBLE_GATT_WRITE_REQ;
 135:.\BLE_Process.c **** 					err_param.attrHandle = wrReqParam->handleValPair.attrHandle;
 136:.\BLE_Process.c **** 					err_param.errorCode = ERR_INVALID_PDU;
 137:.\BLE_Process.c **** 					
 138:.\BLE_Process.c **** 					/* Send Error Response */
 139:.\BLE_Process.c **** 					(void)CyBle_GattsErrorRsp(cyBle_connHandle, &err_param);
 140:.\BLE_Process.c **** 					/* Return to main loop */
 141:.\BLE_Process.c **** 					return;
 142:.\BLE_Process.c **** 				}
 143:.\BLE_Process.c **** 			}
 144:.\BLE_Process.c **** 			/* Sen Image Burst Service */
 145:.\BLE_Process.c **** 			else if(CYBLE_SENIMAGEBURST_IMAGEBURST_CLIENT_CHARACTERISTIC_CONFIGURATION_DESC_HANDLE == wrReqP
 146:.\BLE_Process.c **** 				/* Only the first and second lowest significant bit can be 
ARM GAS  C:\Users\liziy\AppData\Local\Temp\cco2NPV0.s 			page 4


 147:.\BLE_Process.c **** 				* set when writing on CCCD. If any other bit is set, then send error code */
 148:.\BLE_Process.c **** 				if(FALSE == (wrReqParam->handleValPair.value.val [CYBLE_SENIMAGEBURST_IMAGEBURST_CLIENT_CHARACT
 149:.\BLE_Process.c **** 								& (~CCCD_VALID_BIT_MASK))) {
 150:.\BLE_Process.c **** 					/* Set flag for application to know status of notifications. 
 151:.\BLE_Process.c **** 					* Only one byte is read as it contains the set value. */
 152:.\BLE_Process.c **** 					imageBurstStartNotification = wrReqParam->handleValPair.value.val [CYBLE_SENIMAGEBURST_IMAGEBU
 153:.\BLE_Process.c **** 					if (TRUE == imageBurstStartNotification)	
 154:.\BLE_Process.c **** 							SenReset();
 155:.\BLE_Process.c **** 					else	SenDeselectChip();
 156:.\BLE_Process.c **** 					/* Update GATT DB with latest CCCD value */ 
 157:.\BLE_Process.c **** 					CyBle_GattsWriteAttributeValue(&wrReqParam->handleValPair, FALSE, &cyBle_connHandle, CYBLE_GAT
 158:.\BLE_Process.c **** 				} else { 
 159:.\BLE_Process.c **** 					/* Send error response for Invalid PDU against Write * request */
 160:.\BLE_Process.c **** 					CYBLE_GATTS_ERR_PARAM_T err_param;
 161:.\BLE_Process.c **** 					err_param.opcode = CYBLE_GATT_WRITE_REQ;
 162:.\BLE_Process.c **** 					err_param.attrHandle = wrReqParam->handleValPair.attrHandle;
 163:.\BLE_Process.c **** 					err_param.errorCode = ERR_INVALID_PDU;
 164:.\BLE_Process.c **** 					
 165:.\BLE_Process.c **** 					/* Send Error Response */
 166:.\BLE_Process.c **** 					(void)CyBle_GattsErrorRsp(cyBle_connHandle, &err_param);
 167:.\BLE_Process.c **** 					/* Return to main loop */
 168:.\BLE_Process.c **** 					return;
 169:.\BLE_Process.c **** 				}
 170:.\BLE_Process.c **** 			}
 171:.\BLE_Process.c **** 			
 172:.\BLE_Process.c **** 			
 173:.\BLE_Process.c **** 			
 174:.\BLE_Process.c **** 			/* Send the response to the write request received. */ 
 175:.\BLE_Process.c **** 			CyBle_GattsWriteRsp(cyBle_connHandle);
 176:.\BLE_Process.c **** 			
 177:.\BLE_Process.c **** 			break; 
 178:.\BLE_Process.c **** 			
 179:.\BLE_Process.c **** 		case CYBLE_EVT_STACK_BUSY_STATUS:
 180:.\BLE_Process.c **** 			/* This event is generated when the internal stack buffer is full and no more
 181:.\BLE_Process.c **** 			* data can be accepted or the stack has buffer available and can accept data.
 182:.\BLE_Process.c **** 			* This event is used by application to prevent pushing lot of data to stack. */
 183:.\BLE_Process.c **** 			
 184:.\BLE_Process.c **** 			/* Extract the present stack status */
 185:.\BLE_Process.c ****             busyStatus = * (uint8*)eventParam;
 186:.\BLE_Process.c ****             break;
 187:.\BLE_Process.c **** 			
 188:.\BLE_Process.c **** 		default:
 189:.\BLE_Process.c **** 			break; 
 190:.\BLE_Process.c **** 	}
 191:.\BLE_Process.c **** }
 192:.\BLE_Process.c **** 
 193:.\BLE_Process.c **** void SendDataOverSenMotionBurstNotification(uint8 delta_X, uint8 delta_Y)
 194:.\BLE_Process.c **** {
  26              		.loc 1 194 0
  27              		.cfi_startproc
  28              	.LVL0:
  29 0000 00B5     		push	{lr}
  30              		.cfi_def_cfa_offset 4
  31              		.cfi_offset 14, -4
  32 0002 85B0     		sub	sp, sp, #20
  33              		.cfi_def_cfa_offset 24
 195:.\BLE_Process.c **** 	/* 'motionBurstNotificationHandle' stores CapSense notification data parameters */
ARM GAS  C:\Users\liziy\AppData\Local\Temp\cco2NPV0.s 			page 5


 196:.\BLE_Process.c **** 	CYBLE_GATTS_HANDLE_VALUE_NTF_T		motionBurstNotificationHandle;	
 197:.\BLE_Process.c **** 	uint8 motionDeltaArray[2];
 198:.\BLE_Process.c **** 	motionDeltaArray[0] = delta_X;
  34              		.loc 1 198 0
  35 0004 6B46     		mov	r3, sp
  36 0006 1870     		strb	r0, [r3]
 199:.\BLE_Process.c **** 	motionDeltaArray[1] = delta_Y;
  37              		.loc 1 199 0
  38 0008 5970     		strb	r1, [r3, #1]
 200:.\BLE_Process.c **** 	/* If stack is not busy, then send the notification */
 201:.\BLE_Process.c **** //	if(busyStatus == CYBLE_STACK_STATE_FREE)
 202:.\BLE_Process.c **** //	{
 203:.\BLE_Process.c **** 		/* Update notification handle with CapSense slider data*/
 204:.\BLE_Process.c **** 		motionBurstNotificationHandle.attrHandle = CYBLE_SENMOTIONBURST_MOTIONBURST_CHAR_HANDLE;				
  39              		.loc 1 204 0
  40 000a 01A9     		add	r1, sp, #4
  41              	.LVL1:
  42 000c 1223     		mov	r3, #18
  43              	.LVL2:
  44 000e 0B81     		strh	r3, [r1, #8]
 205:.\BLE_Process.c **** 		motionBurstNotificationHandle.value.val = &(motionDeltaArray[0]);
  45              		.loc 1 205 0
  46 0010 6B46     		mov	r3, sp
  47 0012 0193     		str	r3, [sp, #4]
 206:.\BLE_Process.c **** 		motionBurstNotificationHandle.value.len = Sen_MotionBurst_DATA_LEN;
  48              		.loc 1 206 0
  49 0014 0223     		mov	r3, #2
  50 0016 8B80     		strh	r3, [r1, #4]
 207:.\BLE_Process.c **** 		
 208:.\BLE_Process.c **** 		/* Send the updated handle as part of attribute for notifications */
 209:.\BLE_Process.c **** 		CyBle_GattsNotification(cyBle_connHandle,&motionBurstNotificationHandle);
  51              		.loc 1 209 0
  52 0018 044A     		ldr	r2, .L2
  53 001a 1378     		ldrb	r3, [r2]
  54 001c 5078     		ldrb	r0, [r2, #1]
  55              	.LVL3:
  56 001e 0002     		lsl	r0, r0, #8
  57 0020 1843     		orr	r0, r3
  58 0022 FFF7FEFF 		bl	CyBle_GattsNotification
  59              	.LVL4:
 210:.\BLE_Process.c **** //	}
 211:.\BLE_Process.c **** }
  60              		.loc 1 211 0
  61 0026 05B0     		add	sp, sp, #20
  62              		@ sp needed
  63 0028 00BD     		pop	{pc}
  64              	.L3:
  65 002a C046     		.align	2
  66              	.L2:
  67 002c 00000000 		.word	cyBle_connHandle
  68              		.cfi_endproc
  69              	.LFE36:
  70              		.size	SendDataOverSenMotionBurstNotification, .-SendDataOverSenMotionBurstNotification
  71              		.section	.text.Send18ArrayDataOverSenImageBurstNotification,"ax",%progbits
  72              		.align	2
  73              		.global	Send18ArrayDataOverSenImageBurstNotification
  74              		.code	16
ARM GAS  C:\Users\liziy\AppData\Local\Temp\cco2NPV0.s 			page 6


  75              		.thumb_func
  76              		.type	Send18ArrayDataOverSenImageBurstNotification, %function
  77              	Send18ArrayDataOverSenImageBurstNotification:
  78              	.LFB37:
 212:.\BLE_Process.c **** 
 213:.\BLE_Process.c **** void Send18ArrayDataOverSenImageBurstNotification(uint8 *Pixels18Array)
 214:.\BLE_Process.c **** {
  79              		.loc 1 214 0
  80              		.cfi_startproc
  81              	.LVL5:
  82 0000 00B5     		push	{lr}
  83              		.cfi_def_cfa_offset 4
  84              		.cfi_offset 14, -4
  85 0002 85B0     		sub	sp, sp, #20
  86              		.cfi_def_cfa_offset 24
 215:.\BLE_Process.c **** 		/* 'motionBurstNotificationHandle' stores CapSense notification data parameters */
 216:.\BLE_Process.c **** 		CYBLE_GATTS_HANDLE_VALUE_NTF_T		imageBurstPixels301NotificationHandle;	
 217:.\BLE_Process.c **** 
 218:.\BLE_Process.c **** 		/* Update notification handle with CapSense slider data*/
 219:.\BLE_Process.c **** 		imageBurstPixels301NotificationHandle.attrHandle = CYBLE_SENIMAGEBURST_IMAGEBURST_CHAR_HANDLE;			
  87              		.loc 1 219 0
  88 0004 01A9     		add	r1, sp, #4
  89 0006 1623     		mov	r3, #22
  90 0008 0B81     		strh	r3, [r1, #8]
 220:.\BLE_Process.c **** 		imageBurstPixels301NotificationHandle.value.val = Pixels18Array;
  91              		.loc 1 220 0
  92 000a 0190     		str	r0, [sp, #4]
 221:.\BLE_Process.c **** 		imageBurstPixels301NotificationHandle.value.len = Sen_18_PixelsArray_LEN;
  93              		.loc 1 221 0
  94 000c 2E23     		mov	r3, #46
  95 000e FF33     		add	r3, r3, #255
  96 0010 8B80     		strh	r3, [r1, #4]
 222:.\BLE_Process.c **** 		
 223:.\BLE_Process.c **** 		/* Send the updated handle as part of attribute for notifications */
 224:.\BLE_Process.c **** 		CyBle_GattsNotification(cyBle_connHandle,&imageBurstPixels301NotificationHandle);
  97              		.loc 1 224 0
  98 0012 044A     		ldr	r2, .L5
  99 0014 1378     		ldrb	r3, [r2]
 100 0016 5078     		ldrb	r0, [r2, #1]
 101              	.LVL6:
 102 0018 0002     		lsl	r0, r0, #8
 103 001a 1843     		orr	r0, r3
 104 001c FFF7FEFF 		bl	CyBle_GattsNotification
 105              	.LVL7:
 225:.\BLE_Process.c **** }
 106              		.loc 1 225 0
 107 0020 05B0     		add	sp, sp, #20
 108              		@ sp needed
 109 0022 00BD     		pop	{pc}
 110              	.L6:
 111              		.align	2
 112              	.L5:
 113 0024 00000000 		.word	cyBle_connHandle
 114              		.cfi_endproc
 115              	.LFE37:
 116              		.size	Send18ArrayDataOverSenImageBurstNotification, .-Send18ArrayDataOverSenImageBurstNotification
 117              		.section	.text.endMotionBurstCharacteristic,"ax",%progbits
ARM GAS  C:\Users\liziy\AppData\Local\Temp\cco2NPV0.s 			page 7


 118              		.align	2
 119              		.global	endMotionBurstCharacteristic
 120              		.code	16
 121              		.thumb_func
 122              		.type	endMotionBurstCharacteristic, %function
 123              	endMotionBurstCharacteristic:
 124              	.LFB38:
 226:.\BLE_Process.c **** 
 227:.\BLE_Process.c **** void endMotionBurstCharacteristic()	{
 125              		.loc 1 227 0
 126              		.cfi_startproc
 127 0000 00B5     		push	{lr}
 128              		.cfi_def_cfa_offset 4
 129              		.cfi_offset 14, -4
 130 0002 85B0     		sub	sp, sp, #20
 131              		.cfi_def_cfa_offset 24
 228:.\BLE_Process.c **** 		/* update motionBurst dataBase*/
 229:.\BLE_Process.c **** 		/* Handle value to update the CCCD */
 230:.\BLE_Process.c **** 		CYBLE_GATT_HANDLE_VALUE_PAIR_T motionBurstNotificationCCCDhandle;
 231:.\BLE_Process.c **** 		uint8 motionBurstCCCDvalue[2];
 232:.\BLE_Process.c **** 
 233:.\BLE_Process.c **** 		/* Write the present CapSense notification status to the local variable */
 234:.\BLE_Process.c **** 		motionBurstCCCDvalue[0] = motionBurstStartNotification;
 132              		.loc 1 234 0
 133 0004 094B     		ldr	r3, .L8
 134 0006 1B78     		ldrb	r3, [r3]
 135 0008 6A46     		mov	r2, sp
 136 000a 1370     		strb	r3, [r2]
 235:.\BLE_Process.c **** 		motionBurstCCCDvalue[1] = 0x00;
 137              		.loc 1 235 0
 138 000c 0023     		mov	r3, #0
 139 000e 5370     		strb	r3, [r2, #1]
 236:.\BLE_Process.c **** 		
 237:.\BLE_Process.c **** 		/* Update CCCD handle with notification status data*/
 238:.\BLE_Process.c **** 		motionBurstNotificationCCCDhandle.attrHandle = CYBLE_SENMOTIONBURST_MOTIONBURST_CLIENT_CHARACTERI
 140              		.loc 1 238 0
 141 0010 01A8     		add	r0, sp, #4
 142 0012 1333     		add	r3, r3, #19
 143 0014 0381     		strh	r3, [r0, #8]
 239:.\BLE_Process.c **** 		motionBurstNotificationCCCDhandle.value.val = motionBurstCCCDvalue;
 144              		.loc 1 239 0
 145 0016 0192     		str	r2, [sp, #4]
 240:.\BLE_Process.c **** 		motionBurstNotificationCCCDhandle.value.len = CCCD_DATA_LEN;
 146              		.loc 1 240 0
 147 0018 0223     		mov	r3, #2
 148 001a 8380     		strh	r3, [r0, #4]
 241:.\BLE_Process.c **** 		
 242:.\BLE_Process.c **** 		/* Report data to BLE component for sending data when read by Central device */
 243:.\BLE_Process.c **** 		CyBle_GattsWriteAttributeValue(&motionBurstNotificationCCCDhandle, FALSE, &cyBle_connHandle, CYBL
 149              		.loc 1 243 0
 150 001c 0021     		mov	r1, #0
 151 001e 044A     		ldr	r2, .L8+4
 152 0020 3E33     		add	r3, r3, #62
 153 0022 FFF7FEFF 		bl	CyBle_GattsWriteAttributeValue
 154              	.LVL8:
 244:.\BLE_Process.c **** }
 155              		.loc 1 244 0
ARM GAS  C:\Users\liziy\AppData\Local\Temp\cco2NPV0.s 			page 8


 156 0026 05B0     		add	sp, sp, #20
 157              		@ sp needed
 158 0028 00BD     		pop	{pc}
 159              	.L9:
 160 002a C046     		.align	2
 161              	.L8:
 162 002c 00000000 		.word	.LANCHOR0
 163 0030 00000000 		.word	cyBle_connHandle
 164              		.cfi_endproc
 165              	.LFE38:
 166              		.size	endMotionBurstCharacteristic, .-endMotionBurstCharacteristic
 167              		.section	.text.endImageBurstCharacteristic,"ax",%progbits
 168              		.align	2
 169              		.global	endImageBurstCharacteristic
 170              		.code	16
 171              		.thumb_func
 172              		.type	endImageBurstCharacteristic, %function
 173              	endImageBurstCharacteristic:
 174              	.LFB39:
 245:.\BLE_Process.c **** 
 246:.\BLE_Process.c **** void endImageBurstCharacteristic()	{
 175              		.loc 1 246 0
 176              		.cfi_startproc
 177 0000 00B5     		push	{lr}
 178              		.cfi_def_cfa_offset 4
 179              		.cfi_offset 14, -4
 180 0002 85B0     		sub	sp, sp, #20
 181              		.cfi_def_cfa_offset 24
 247:.\BLE_Process.c **** 		/* update motionBurst dataBase*/
 248:.\BLE_Process.c **** 		/* Handle value to update the CCCD */
 249:.\BLE_Process.c **** 		CYBLE_GATT_HANDLE_VALUE_PAIR_T imageBurstNotificationCCCDhandle;
 250:.\BLE_Process.c **** 		uint8 imageBurstCCCDvalue[2];
 251:.\BLE_Process.c **** 
 252:.\BLE_Process.c **** 		/* Write the present CapSense notification status to the local variable */
 253:.\BLE_Process.c **** 		imageBurstCCCDvalue[0] = imageBurstStartNotification;
 182              		.loc 1 253 0
 183 0004 094B     		ldr	r3, .L11
 184 0006 5B78     		ldrb	r3, [r3, #1]
 185 0008 6A46     		mov	r2, sp
 186 000a 1370     		strb	r3, [r2]
 254:.\BLE_Process.c **** 		imageBurstCCCDvalue[1] = 0x00;
 187              		.loc 1 254 0
 188 000c 0023     		mov	r3, #0
 189 000e 5370     		strb	r3, [r2, #1]
 255:.\BLE_Process.c **** 		
 256:.\BLE_Process.c **** 		/* Update CCCD handle with notification status data*/
 257:.\BLE_Process.c **** 		imageBurstNotificationCCCDhandle.attrHandle = CYBLE_SENIMAGEBURST_IMAGEBURST_CLIENT_CHARACTERISTI
 190              		.loc 1 257 0
 191 0010 01A8     		add	r0, sp, #4
 192 0012 1733     		add	r3, r3, #23
 193 0014 0381     		strh	r3, [r0, #8]
 258:.\BLE_Process.c **** 		imageBurstNotificationCCCDhandle.value.val = imageBurstCCCDvalue;
 194              		.loc 1 258 0
 195 0016 0192     		str	r2, [sp, #4]
 259:.\BLE_Process.c **** 		imageBurstNotificationCCCDhandle.value.len = CCCD_DATA_LEN;
 196              		.loc 1 259 0
 197 0018 0223     		mov	r3, #2
ARM GAS  C:\Users\liziy\AppData\Local\Temp\cco2NPV0.s 			page 9


 198 001a 8380     		strh	r3, [r0, #4]
 260:.\BLE_Process.c **** 		
 261:.\BLE_Process.c **** 		/* Report data to BLE component for sending data when read by Central device */
 262:.\BLE_Process.c **** 		CyBle_GattsWriteAttributeValue(&imageBurstNotificationCCCDhandle, FALSE, &cyBle_connHandle, CYBLE
 199              		.loc 1 262 0
 200 001c 0021     		mov	r1, #0
 201 001e 044A     		ldr	r2, .L11+4
 202 0020 3E33     		add	r3, r3, #62
 203 0022 FFF7FEFF 		bl	CyBle_GattsWriteAttributeValue
 204              	.LVL9:
 263:.\BLE_Process.c **** }
 205              		.loc 1 263 0
 206 0026 05B0     		add	sp, sp, #20
 207              		@ sp needed
 208 0028 00BD     		pop	{pc}
 209              	.L12:
 210 002a C046     		.align	2
 211              	.L11:
 212 002c 00000000 		.word	.LANCHOR0
 213 0030 00000000 		.word	cyBle_connHandle
 214              		.cfi_endproc
 215              	.LFE39:
 216              		.size	endImageBurstCharacteristic, .-endImageBurstCharacteristic
 217              		.section	.text.UpdateRGBcharacteristic,"ax",%progbits
 218              		.align	2
 219              		.global	UpdateRGBcharacteristic
 220              		.code	16
 221              		.thumb_func
 222              		.type	UpdateRGBcharacteristic, %function
 223              	UpdateRGBcharacteristic:
 224              	.LFB40:
 264:.\BLE_Process.c **** void UpdateRGBcharacteristic(uint8* ledData, uint8 len, uint16 attrHandle) { 
 225              		.loc 1 264 0
 226              		.cfi_startproc
 227              	.LVL10:
 228 0000 00B5     		push	{lr}
 229              		.cfi_def_cfa_offset 4
 230              		.cfi_offset 14, -4
 231 0002 85B0     		sub	sp, sp, #20
 232              		.cfi_def_cfa_offset 24
 265:.\BLE_Process.c **** 	/* 'rgbHandle' stores RGB control data parameters */
 266:.\BLE_Process.c **** 	CYBLE_GATT_HANDLE_VALUE_PAIR_T rgbHandle;
 267:.\BLE_Process.c **** 	
 268:.\BLE_Process.c **** 	/* Update RGB control handle with new values */
 269:.\BLE_Process.c **** 	rgbHandle.attrHandle = attrHandle;
 233              		.loc 1 269 0
 234 0004 01AB     		add	r3, sp, #4
 235 0006 1A81     		strh	r2, [r3, #8]
 270:.\BLE_Process.c **** 	rgbHandle.value.val = ledData;
 236              		.loc 1 270 0
 237 0008 0190     		str	r0, [sp, #4]
 271:.\BLE_Process.c **** 	rgbHandle.value.len = len;
 238              		.loc 1 271 0
 239 000a 9980     		strh	r1, [r3, #4]
 272:.\BLE_Process.c **** 	
 273:.\BLE_Process.c **** 	/* Update the RGB LED attribute value. 
 274:.\BLE_Process.c **** 	This will allow Client device to read the existing color values over RGB LED characteristic */
ARM GAS  C:\Users\liziy\AppData\Local\Temp\cco2NPV0.s 			page 10


 275:.\BLE_Process.c **** 	CyBle_GattsWriteAttributeValue(&rgbHandle, FALSE, &cyBle_connHandle, CYBLE_GATT_DB_LOCALLY_INITIAT
 240              		.loc 1 275 0
 241 000c 181C     		mov	r0, r3
 242              	.LVL11:
 243 000e 0021     		mov	r1, #0
 244              	.LVL12:
 245 0010 024A     		ldr	r2, .L14
 246              	.LVL13:
 247 0012 0023     		mov	r3, #0
 248 0014 FFF7FEFF 		bl	CyBle_GattsWriteAttributeValue
 249              	.LVL14:
 276:.\BLE_Process.c **** }
 250              		.loc 1 276 0
 251 0018 05B0     		add	sp, sp, #20
 252              		@ sp needed
 253 001a 00BD     		pop	{pc}
 254              	.L15:
 255              		.align	2
 256              	.L14:
 257 001c 00000000 		.word	cyBle_connHandle
 258              		.cfi_endproc
 259              	.LFE40:
 260              		.size	UpdateRGBcharacteristic, .-UpdateRGBcharacteristic
 261              		.section	.text.GeneralEventHandler,"ax",%progbits
 262              		.align	2
 263              		.global	GeneralEventHandler
 264              		.code	16
 265              		.thumb_func
 266              		.type	GeneralEventHandler, %function
 267              	GeneralEventHandler:
 268              	.LFB35:
  25:.\BLE_Process.c **** 	/* Structure to store data written by Client */ 
 269              		.loc 1 25 0
 270              		.cfi_startproc
 271              	.LVL15:
 272 0000 70B5     		push	{r4, r5, r6, lr}
 273              		.cfi_def_cfa_offset 16
 274              		.cfi_offset 4, -16
 275              		.cfi_offset 5, -12
 276              		.cfi_offset 6, -8
 277              		.cfi_offset 14, -4
 278 0002 82B0     		sub	sp, sp, #8
 279              		.cfi_def_cfa_offset 24
 280 0004 0C1C     		mov	r4, r1
  32:.\BLE_Process.c **** 		case CYBLE_EVT_STACK_ON: 
 281              		.loc 1 32 0
 282 0006 2828     		cmp	r0, #40
 283 0008 1ED0     		beq	.L18
 284 000a 08D8     		bhi	.L19
 285 000c 0528     		cmp	r0, #5
 286 000e 00D1     		bne	.LCB232
 287 0010 AFE0     		b	.L20	@long jump
 288              	.LCB232:
 289 0012 2628     		cmp	r0, #38
 290 0014 0FD0     		beq	.L21
 291 0016 0128     		cmp	r0, #1
 292 0018 00D0     		beq	.LCB236
ARM GAS  C:\Users\liziy\AppData\Local\Temp\cco2NPV0.s 			page 11


 293 001a ADE0     		b	.L16	@long jump
 294              	.LCB236:
 295 001c 07E0     		b	.L22
 296              	.L19:
 297 001e 4228     		cmp	r0, #66
 298 0020 1ED0     		beq	.L23
 299 0022 4C28     		cmp	r0, #76
 300 0024 37D0     		beq	.L24
 301 0026 4128     		cmp	r0, #65
 302 0028 00D0     		beq	.LCB246
 303 002a A5E0     		b	.L16	@long jump
 304              	.LCB246:
 305 002c 10E0     		b	.L25
 306              	.L22:
  36:.\BLE_Process.c **** 			break;
 307              		.loc 1 36 0
 308 002e 0020     		mov	r0, #0
 309              	.LVL16:
 310 0030 FFF7FEFF 		bl	CyBle_GappStartAdvertisement
 311              	.LVL17:
  37:.\BLE_Process.c **** 		
 312              		.loc 1 37 0
 313 0034 A0E0     		b	.L16
 314              	.LVL18:
 315              	.L21:
  42:.\BLE_Process.c **** 				CyBle_GappStartAdvertisement(CYBLE_ADVERTISING_FAST); 
 316              		.loc 1 42 0
 317 0036 514B     		ldr	r3, .L37
 318 0038 1B78     		ldrb	r3, [r3]
 319 003a 042B     		cmp	r3, #4
 320 003c 00D0     		beq	.LCB265
 321 003e 9BE0     		b	.L16	@long jump
 322              	.LCB265:
  43:.\BLE_Process.c **** 			} break;
 323              		.loc 1 43 0
 324 0040 0020     		mov	r0, #0
 325              	.LVL19:
 326 0042 FFF7FEFF 		bl	CyBle_GappStartAdvertisement
 327              	.LVL20:
 328 0046 97E0     		b	.L16
 329              	.LVL21:
 330              	.L18:
  49:.\BLE_Process.c **** 			break;
 331              		.loc 1 49 0
 332 0048 0020     		mov	r0, #0
 333              	.LVL22:
 334 004a FFF7FEFF 		bl	CyBle_GappStartAdvertisement
 335              	.LVL23:
  50:.\BLE_Process.c **** 
 336              		.loc 1 50 0
 337 004e 93E0     		b	.L16
 338              	.LVL24:
 339              	.L25:
  59:.\BLE_Process.c **** 			
 340              		.loc 1 59 0
 341 0050 4B48     		ldr	r0, .L37+4
 342              	.LVL25:
ARM GAS  C:\Users\liziy\AppData\Local\Temp\cco2NPV0.s 			page 12


 343 0052 0222     		mov	r2, #2
 344 0054 FFF7FEFF 		bl	memcpy
 345              	.LVL26:
  62:.\BLE_Process.c **** 			break;
 346              		.loc 1 62 0
 347 0058 0122     		mov	r2, #1
 348 005a 4A4B     		ldr	r3, .L37+8
 349 005c 9A70     		strb	r2, [r3, #2]
  63:.\BLE_Process.c **** 		
 350              		.loc 1 63 0
 351 005e 8BE0     		b	.L16
 352              	.LVL27:
 353              	.L23:
  68:.\BLE_Process.c **** 			
 354              		.loc 1 68 0
 355 0060 484E     		ldr	r6, .L37+8
 356 0062 0024     		mov	r4, #0
 357 0064 B470     		strb	r4, [r6, #2]
  71:.\BLE_Process.c **** 			RGBledData[GREEN_INDEX] 	= FALSE;
 358              		.loc 1 71 0
 359 0066 01AD     		add	r5, sp, #4
 360 0068 2C70     		strb	r4, [r5]
  72:.\BLE_Process.c **** 			RGBledData[BLUE_INDEX] 		= FALSE;
 361              		.loc 1 72 0
 362 006a 6C70     		strb	r4, [r5, #1]
  73:.\BLE_Process.c **** 			RGBledData[INTENSITY_INDEX] = FALSE;
 363              		.loc 1 73 0
 364 006c AC70     		strb	r4, [r5, #2]
  74:.\BLE_Process.c **** 			
 365              		.loc 1 74 0
 366 006e EC70     		strb	r4, [r5, #3]
  77:.\BLE_Process.c **** 			
 367              		.loc 1 77 0
 368 0070 281C     		mov	r0, r5
 369              	.LVL28:
 370 0072 0421     		mov	r1, #4
 371              	.LVL29:
 372 0074 FFF7FEFF 		bl	UpdateRGBLED
 373              	.LVL30:
  80:.\BLE_Process.c **** 			
 374              		.loc 1 80 0
 375 0078 281C     		mov	r0, r5
 376 007a 0421     		mov	r1, #4
 377 007c 0E22     		mov	r2, #14
 378 007e FFF7FEFF 		bl	UpdateRGBcharacteristic
 379              	.LVL31:
  84:.\BLE_Process.c **** 			imageBurstStartNotification = FALSE;
 380              		.loc 1 84 0
 381 0082 3470     		strb	r4, [r6]
  85:.\BLE_Process.c **** 			SenDeselectChip();	motionReadTimes = 0;
 382              		.loc 1 85 0
 383 0084 7470     		strb	r4, [r6, #1]
  86:.\BLE_Process.c **** 			endMotionBurstCharacteristic();
 384              		.loc 1 86 0
 385 0086 FFF7FEFF 		bl	SenDeselectChip
 386              	.LVL32:
 387 008a F470     		strb	r4, [r6, #3]
ARM GAS  C:\Users\liziy\AppData\Local\Temp\cco2NPV0.s 			page 13


  87:.\BLE_Process.c **** 			endImageBurstCharacteristic();
 388              		.loc 1 87 0
 389 008c FFF7FEFF 		bl	endMotionBurstCharacteristic
 390              	.LVL33:
  88:.\BLE_Process.c **** 			
 391              		.loc 1 88 0
 392 0090 FFF7FEFF 		bl	endImageBurstCharacteristic
 393              	.LVL34:
  90:.\BLE_Process.c **** 		   	
 394              		.loc 1 90 0
 395 0094 70E0     		b	.L16
 396              	.LVL35:
 397              	.L24:
 103:.\BLE_Process.c **** 				/* Store RGB LED data in local array */ 
 398              		.loc 1 103 0
 399 0096 8B89     		ldrh	r3, [r1, #12]
 400 0098 0E2B     		cmp	r3, #14
 401 009a 13D1     		bne	.L26
 105:.\BLE_Process.c **** 				RGBledData[GREEN_INDEX] = wrReqParam->handleValPair.value.val[GREEN_INDEX];
 402              		.loc 1 105 0
 403 009c 4B68     		ldr	r3, [r1, #4]
 404 009e 1A78     		ldrb	r2, [r3]
 405 00a0 01AC     		add	r4, sp, #4
 406 00a2 2270     		strb	r2, [r4]
 106:.\BLE_Process.c **** 				RGBledData[BLUE_INDEX] = wrReqParam->handleValPair.value.val[BLUE_INDEX];
 407              		.loc 1 106 0
 408 00a4 5A78     		ldrb	r2, [r3, #1]
 409 00a6 6270     		strb	r2, [r4, #1]
 107:.\BLE_Process.c **** 				RGBledData[INTENSITY_INDEX] = wrReqParam->handleValPair.value.val[INTENSITY_INDEX];
 410              		.loc 1 107 0
 411 00a8 9A78     		ldrb	r2, [r3, #2]
 412 00aa A270     		strb	r2, [r4, #2]
 108:.\BLE_Process.c **** 				
 413              		.loc 1 108 0
 414 00ac DB78     		ldrb	r3, [r3, #3]
 415 00ae E370     		strb	r3, [r4, #3]
 111:.\BLE_Process.c **** 				
 416              		.loc 1 111 0
 417 00b0 201C     		mov	r0, r4
 418              	.LVL36:
 419 00b2 0421     		mov	r1, #4
 420              	.LVL37:
 421 00b4 FFF7FEFF 		bl	UpdateRGBLED
 422              	.LVL38:
 114:.\BLE_Process.c **** 			}
 423              		.loc 1 114 0
 424 00b8 201C     		mov	r0, r4
 425 00ba 0421     		mov	r1, #4
 426 00bc 0E22     		mov	r2, #14
 427 00be FFF7FEFF 		bl	UpdateRGBcharacteristic
 428              	.LVL39:
 429 00c2 4EE0     		b	.L27
 430              	.LVL40:
 431              	.L26:
 118:.\BLE_Process.c **** 				/* Only the first and second lowest significant bit can be 
 432              		.loc 1 118 0
 433 00c4 132B     		cmp	r3, #19
ARM GAS  C:\Users\liziy\AppData\Local\Temp\cco2NPV0.s 			page 14


 434 00c6 26D1     		bne	.L28
 121:.\BLE_Process.c **** 								& (~CCCD_VALID_BIT_MASK))) {
 435              		.loc 1 121 0
 436 00c8 4A68     		ldr	r2, [r1, #4]
 437 00ca 1278     		ldrb	r2, [r2]
 122:.\BLE_Process.c **** 					/* Set flag for application to know status of notifications. 
 438              		.loc 1 122 0
 439 00cc 0321     		mov	r1, #3
 440              	.LVL41:
 441 00ce 101C     		mov	r0, r2
 442              	.LVL42:
 443 00d0 8843     		bic	r0, r1
 121:.\BLE_Process.c **** 								& (~CCCD_VALID_BIT_MASK))) {
 444              		.loc 1 121 0
 445 00d2 12D1     		bne	.L29
 125:.\BLE_Process.c **** 					if (TRUE == motionBurstStartNotification)	
 446              		.loc 1 125 0
 447 00d4 2B4B     		ldr	r3, .L37+8
 448 00d6 1A70     		strb	r2, [r3]
 126:.\BLE_Process.c **** 							SenReset();
 449              		.loc 1 126 0
 450 00d8 012A     		cmp	r2, #1
 451 00da 02D1     		bne	.L30
 127:.\BLE_Process.c **** 					else	{	SenDeselectChip(); motionReadTimes = 0;	}
 452              		.loc 1 127 0
 453 00dc FFF7FEFF 		bl	SenReset
 454              	.LVL43:
 455 00e0 04E0     		b	.L31
 456              	.L30:
 128:.\BLE_Process.c **** 					/* Update GATT DB with latest CCCD value */ 
 457              		.loc 1 128 0
 458 00e2 FFF7FEFF 		bl	SenDeselectChip
 459              	.LVL44:
 460 00e6 0022     		mov	r2, #0
 461 00e8 264B     		ldr	r3, .L37+8
 462 00ea DA70     		strb	r2, [r3, #3]
 463              	.L31:
 130:.\BLE_Process.c **** 				} else { 
 464              		.loc 1 130 0
 465 00ec 201D     		add	r0, r4, #4
 466 00ee 0021     		mov	r1, #0
 467 00f0 234A     		ldr	r2, .L37+4
 468 00f2 0023     		mov	r3, #0
 469 00f4 FFF7FEFF 		bl	CyBle_GattsWriteAttributeValue
 470              	.LVL45:
 471 00f8 33E0     		b	.L27
 472              	.L29:
 473              	.LBB2:
 134:.\BLE_Process.c **** 					err_param.attrHandle = wrReqParam->handleValPair.attrHandle;
 474              		.loc 1 134 0
 475 00fa 1222     		mov	r2, #18
 476 00fc 6946     		mov	r1, sp
 477 00fe 8A70     		strb	r2, [r1, #2]
 135:.\BLE_Process.c **** 					err_param.errorCode = ERR_INVALID_PDU;
 478              		.loc 1 135 0
 479 0100 0B80     		strh	r3, [r1]
 136:.\BLE_Process.c **** 					
ARM GAS  C:\Users\liziy\AppData\Local\Temp\cco2NPV0.s 			page 15


 480              		.loc 1 136 0
 481 0102 0423     		mov	r3, #4
 482 0104 CB70     		strb	r3, [r1, #3]
 139:.\BLE_Process.c **** 					/* Return to main loop */
 483              		.loc 1 139 0
 484 0106 1E4A     		ldr	r2, .L37+4
 485 0108 1378     		ldrb	r3, [r2]
 486 010a 5078     		ldrb	r0, [r2, #1]
 487 010c 0002     		lsl	r0, r0, #8
 488 010e 1843     		orr	r0, r3
 489 0110 FFF7FEFF 		bl	CyBle_GattsErrorRsp
 490              	.LVL46:
 491 0114 30E0     		b	.L16
 492              	.LVL47:
 493              	.L28:
 494              	.LBE2:
 145:.\BLE_Process.c **** 				/* Only the first and second lowest significant bit can be 
 495              		.loc 1 145 0
 496 0116 172B     		cmp	r3, #23
 497 0118 23D1     		bne	.L27
 148:.\BLE_Process.c **** 								& (~CCCD_VALID_BIT_MASK))) {
 498              		.loc 1 148 0
 499 011a 4A68     		ldr	r2, [r1, #4]
 500 011c 1278     		ldrb	r2, [r2]
 149:.\BLE_Process.c **** 					/* Set flag for application to know status of notifications. 
 501              		.loc 1 149 0
 502 011e 0321     		mov	r1, #3
 503              	.LVL48:
 504 0120 101C     		mov	r0, r2
 505              	.LVL49:
 506 0122 8843     		bic	r0, r1
 148:.\BLE_Process.c **** 								& (~CCCD_VALID_BIT_MASK))) {
 507              		.loc 1 148 0
 508 0124 0FD1     		bne	.L33
 152:.\BLE_Process.c **** 					if (TRUE == imageBurstStartNotification)	
 509              		.loc 1 152 0
 510 0126 174B     		ldr	r3, .L37+8
 511 0128 5A70     		strb	r2, [r3, #1]
 153:.\BLE_Process.c **** 							SenReset();
 512              		.loc 1 153 0
 513 012a 012A     		cmp	r2, #1
 514 012c 02D1     		bne	.L34
 154:.\BLE_Process.c **** 					else	SenDeselectChip();
 515              		.loc 1 154 0
 516 012e FFF7FEFF 		bl	SenReset
 517              	.LVL50:
 518 0132 01E0     		b	.L35
 519              	.L34:
 155:.\BLE_Process.c **** 					/* Update GATT DB with latest CCCD value */ 
 520              		.loc 1 155 0
 521 0134 FFF7FEFF 		bl	SenDeselectChip
 522              	.LVL51:
 523              	.L35:
 157:.\BLE_Process.c **** 				} else { 
 524              		.loc 1 157 0
 525 0138 201D     		add	r0, r4, #4
 526 013a 0021     		mov	r1, #0
ARM GAS  C:\Users\liziy\AppData\Local\Temp\cco2NPV0.s 			page 16


 527 013c 104A     		ldr	r2, .L37+4
 528 013e 0023     		mov	r3, #0
 529 0140 FFF7FEFF 		bl	CyBle_GattsWriteAttributeValue
 530              	.LVL52:
 531 0144 0DE0     		b	.L27
 532              	.L33:
 533              	.LBB3:
 161:.\BLE_Process.c **** 					err_param.attrHandle = wrReqParam->handleValPair.attrHandle;
 534              		.loc 1 161 0
 535 0146 1222     		mov	r2, #18
 536 0148 6946     		mov	r1, sp
 537 014a 8A70     		strb	r2, [r1, #2]
 162:.\BLE_Process.c **** 					err_param.errorCode = ERR_INVALID_PDU;
 538              		.loc 1 162 0
 539 014c 0B80     		strh	r3, [r1]
 163:.\BLE_Process.c **** 					
 540              		.loc 1 163 0
 541 014e 0423     		mov	r3, #4
 542 0150 CB70     		strb	r3, [r1, #3]
 166:.\BLE_Process.c **** 					/* Return to main loop */
 543              		.loc 1 166 0
 544 0152 0B4A     		ldr	r2, .L37+4
 545 0154 1378     		ldrb	r3, [r2]
 546 0156 5078     		ldrb	r0, [r2, #1]
 547 0158 0002     		lsl	r0, r0, #8
 548 015a 1843     		orr	r0, r3
 549 015c FFF7FEFF 		bl	CyBle_GattsErrorRsp
 550              	.LVL53:
 551 0160 0AE0     		b	.L16
 552              	.LVL54:
 553              	.L27:
 554              	.LBE3:
 175:.\BLE_Process.c **** 			
 555              		.loc 1 175 0
 556 0162 074A     		ldr	r2, .L37+4
 557 0164 1378     		ldrb	r3, [r2]
 558 0166 5078     		ldrb	r0, [r2, #1]
 559 0168 0002     		lsl	r0, r0, #8
 560 016a 1843     		orr	r0, r3
 561 016c FFF7FEFF 		bl	CyBle_GattsWriteRsp
 562              	.LVL55:
 177:.\BLE_Process.c **** 			
 563              		.loc 1 177 0
 564 0170 02E0     		b	.L16
 565              	.LVL56:
 566              	.L20:
 185:.\BLE_Process.c ****             break;
 567              		.loc 1 185 0
 568 0172 0A78     		ldrb	r2, [r1]
 569 0174 034B     		ldr	r3, .L37+8
 570 0176 1A71     		strb	r2, [r3, #4]
 571              	.LVL57:
 572              	.L16:
 191:.\BLE_Process.c **** 
 573              		.loc 1 191 0
 574 0178 02B0     		add	sp, sp, #8
 575              		@ sp needed
ARM GAS  C:\Users\liziy\AppData\Local\Temp\cco2NPV0.s 			page 17


 576 017a 70BD     		pop	{r4, r5, r6, pc}
 577              	.L38:
 578              		.align	2
 579              	.L37:
 580 017c 00000000 		.word	cyBle_state
 581 0180 00000000 		.word	cyBle_connHandle
 582 0184 00000000 		.word	.LANCHOR0
 583              		.cfi_endproc
 584              	.LFE35:
 585              		.size	GeneralEventHandler, .-GeneralEventHandler
 586              		.global	motionReadTimes
 587              		.global	imageBurstStartNotification
 588              		.global	motionBurstStartNotification
 589              		.global	deviceConnected
 590              		.global	busyStatus
 591              		.bss
 592              		.set	.LANCHOR0,. + 0
 593              		.type	motionBurstStartNotification, %object
 594              		.size	motionBurstStartNotification, 1
 595              	motionBurstStartNotification:
 596 0000 00       		.space	1
 597              		.type	imageBurstStartNotification, %object
 598              		.size	imageBurstStartNotification, 1
 599              	imageBurstStartNotification:
 600 0001 00       		.space	1
 601              		.type	deviceConnected, %object
 602              		.size	deviceConnected, 1
 603              	deviceConnected:
 604 0002 00       		.space	1
 605              		.type	motionReadTimes, %object
 606              		.size	motionReadTimes, 1
 607              	motionReadTimes:
 608 0003 00       		.space	1
 609              		.type	busyStatus, %object
 610              		.size	busyStatus, 1
 611              	busyStatus:
 612 0004 00       		.space	1
 613              		.text
 614              	.Letext0:
 615              		.file 2 "Generated_Source\\PSoC4/cytypes.h"
 616              		.file 3 "Generated_Source\\PSoC4/SenBLE_Stack.h"
 617              		.file 4 "Generated_Source\\PSoC4/SenBLE_StackGatt.h"
 618              		.file 5 "Generated_Source\\PSoC4/SenBLE_StackGattServer.h"
 619              		.file 6 "Generated_Source\\PSoC4/SenBLE_eventHandler.h"
 620              		.file 7 "Generated_Source\\PSoC4/SenBLE_StackGattDb.h"
 621              		.file 8 "Generated_Source\\PSoC4/SenBLE.h"
 622              		.file 9 ".\\Sen_SPI_OF.h"
 623              		.file 10 ".\\LED_Control.h"