ARM GAS  C:\Users\liziy\AppData\Local\Temp\cc2Yk2MJ.s 			page 1


   1              		.cpu cortex-m0
   2              		.fpu softvfp
   3              		.eabi_attribute 20, 1
   4              		.eabi_attribute 21, 1
   5              		.eabi_attribute 23, 3
   6              		.eabi_attribute 24, 1
   7              		.eabi_attribute 25, 1
   8              		.eabi_attribute 26, 1
   9              		.eabi_attribute 30, 1
  10              		.eabi_attribute 34, 0
  11              		.eabi_attribute 18, 4
  12              		.code	16
  13              		.file	"LED_Control.c"
  14              		.text
  15              	.Ltext0:
  16              		.cfi_sections	.debug_frame
  17              		.global	__aeabi_idiv
  18              		.section	.text.UpdateRGBLED,"ax",%progbits
  19              		.align	2
  20              		.global	UpdateRGBLED
  21              		.code	16
  22              		.thumb_func
  23              		.type	UpdateRGBLED, %function
  24              	UpdateRGBLED:
  25              	.LFB35:
  26              		.file 1 ".\\LED_Control.c"
   1:.\LED_Control.c **** /* ========================================
   2:.\LED_Control.c ****  *
   3:.\LED_Control.c ****  * Copyright Sen Li, Dec 2015
   4:.\LED_Control.c ****  * All Rights Reserved
   5:.\LED_Control.c ****  * UNPUBLISHED, LICENSED SOFTWARE.
   6:.\LED_Control.c ****  *
   7:.\LED_Control.c ****  * CONFIDENTIAL AND PROPRIETARY INFORMATION
   8:.\LED_Control.c ****  * WHICH IS THE PROPERTY OF your company.
   9:.\LED_Control.c ****  *
  10:.\LED_Control.c ****  * ========================================
  11:.\LED_Control.c **** */
  12:.\LED_Control.c **** #include "LED_Control.h"
  13:.\LED_Control.c **** 
  14:.\LED_Control.c **** void UpdateRGBLED(uint8* ledData, uint8 len) {
  27              		.loc 1 14 0
  28              		.cfi_startproc
  29              	.LVL0:
  30 0000 F8B5     		push	{r3, r4, r5, r6, r7, lr}
  31              		.cfi_def_cfa_offset 24
  32              		.cfi_offset 3, -24
  33              		.cfi_offset 4, -20
  34              		.cfi_offset 5, -16
  35              		.cfi_offset 6, -12
  36              		.cfi_offset 7, -8
  37              		.cfi_offset 14, -4
  15:.\LED_Control.c **** 	/* Local variables to store calculated color components */
  16:.\LED_Control.c **** 	uint8 calc_red;
  17:.\LED_Control.c **** 	uint8 calc_green;
  18:.\LED_Control.c **** 	uint8 calc_blue;
  19:.\LED_Control.c **** 	
  20:.\LED_Control.c **** 	/* Check if the array has length equal to expected length for RGB LED data */
ARM GAS  C:\Users\liziy\AppData\Local\Temp\cc2Yk2MJ.s 			page 2


  21:.\LED_Control.c **** 	if(len == RGB_CHAR_DATA_LEN) {
  38              		.loc 1 21 0
  39 0002 0429     		cmp	r1, #4
  40 0004 1FD1     		bne	.L1
  41 0006 041C     		mov	r4, r0
  22:.\LED_Control.c **** 	/* True color to be displayed is calculated on basis of color and intensity value received */ 
  23:.\LED_Control.c **** 		calc_red 	= (uint8) (((uint16)ledData[RED_INDEX]*ledData[INTENSITY_INDEX])/RGB_LED_MAX_VAL);
  42              		.loc 1 23 0
  43 0008 0078     		ldrb	r0, [r0]
  44              	.LVL1:
  45 000a E778     		ldrb	r7, [r4, #3]
  46 000c 7843     		mul	r0, r7
  47 000e FB31     		add	r1, r1, #251
  48              	.LVL2:
  49 0010 FFF7FEFF 		bl	__aeabi_idiv
  50              	.LVL3:
  51 0014 C6B2     		uxtb	r6, r0
  52              	.LVL4:
  24:.\LED_Control.c **** 		calc_green 	= (uint8) (((uint16)ledData[GREEN_INDEX]*ledData[INTENSITY_INDEX])/RGB_LED_MAX_VAL);
  53              		.loc 1 24 0
  54 0016 6078     		ldrb	r0, [r4, #1]
  55 0018 7843     		mul	r0, r7
  56 001a FF21     		mov	r1, #255
  57 001c FFF7FEFF 		bl	__aeabi_idiv
  58              	.LVL5:
  59 0020 C5B2     		uxtb	r5, r0
  60              	.LVL6:
  25:.\LED_Control.c **** 		calc_blue 	= (uint8) (((uint16)ledData[BLUE_INDEX]*ledData[INTENSITY_INDEX])/RGB_LED_MAX_VAL); 
  61              		.loc 1 25 0
  62 0022 A078     		ldrb	r0, [r4, #2]
  63 0024 7843     		mul	r0, r7
  64 0026 FF21     		mov	r1, #255
  65 0028 FFF7FEFF 		bl	__aeabi_idiv
  66              	.LVL7:
  67 002c C4B2     		uxtb	r4, r0
  68              	.LVL8:
  26:.\LED_Control.c **** 		
  27:.\LED_Control.c **** 		/* Update the density value of the PrISM module */
  28:.\LED_Control.c **** 		PrISM_1_WritePulse0(RGB_LED_MAX_VAL - calc_red);
  69              		.loc 1 28 0
  70 002e F043     		mvn	r0, r6
  71 0030 C0B2     		uxtb	r0, r0
  72 0032 FFF7FEFF 		bl	PrISM_1_WritePulse0
  73              	.LVL9:
  29:.\LED_Control.c **** 		PrISM_1_WritePulse1(RGB_LED_MAX_VAL - calc_green);
  74              		.loc 1 29 0
  75 0036 E843     		mvn	r0, r5
  76 0038 C0B2     		uxtb	r0, r0
  77 003a FFF7FEFF 		bl	PrISM_1_WritePulse1
  78              	.LVL10:
  30:.\LED_Control.c **** 		PrISM_2_WritePulse0(RGB_LED_MAX_VAL - calc_blue); 
  79              		.loc 1 30 0
  80 003e E043     		mvn	r0, r4
  81 0040 C0B2     		uxtb	r0, r0
  82 0042 FFF7FEFF 		bl	PrISM_2_WritePulse0
  83              	.LVL11:
  84              	.L1:
ARM GAS  C:\Users\liziy\AppData\Local\Temp\cc2Yk2MJ.s 			page 3


  31:.\LED_Control.c **** 	}
  32:.\LED_Control.c **** }
  85              		.loc 1 32 0
  86              		@ sp needed
  87 0046 F8BD     		pop	{r3, r4, r5, r6, r7, pc}
  88              		.cfi_endproc
  89              	.LFE35:
  90              		.size	UpdateRGBLED, .-UpdateRGBLED
  91              		.text
  92              	.Letext0:
  93              		.file 2 "Generated_Source\\PSoC4/cytypes.h"
  94              		.file 3 "Generated_Source\\PSoC4/PrISM_1.h"
  95              		.file 4 "Generated_Source\\PSoC4/PrISM_2.h"