ARM GAS  C:\Users\liziy\AppData\Local\Temp\ccERDFS5.s 			page 1


   1              		.cpu cortex-m0
   2              		.fpu softvfp
   3              		.eabi_attribute 20, 1
   4              		.eabi_attribute 21, 1
   5              		.eabi_attribute 23, 3
   6              		.eabi_attribute 24, 1
   7              		.eabi_attribute 25, 1
   8              		.eabi_attribute 26, 1
   9              		.eabi_attribute 30, 1
  10              		.eabi_attribute 34, 0
  11              		.eabi_attribute 18, 4
  12              		.code	16
  13              		.file	"main.c"
  14              		.text
  15              	.Ltext0:
  16              		.cfi_sections	.debug_frame
  17              		.section	.text.SenContinueMotionBurst,"ax",%progbits
  18              		.align	2
  19              		.global	SenContinueMotionBurst
  20              		.code	16
  21              		.thumb_func
  22              		.type	SenContinueMotionBurst, %function
  23              	SenContinueMotionBurst:
  24              	.LFB35:
  25              		.file 1 ".\\main.h"
   1:.\main.h      **** /* ========================================
   2:.\main.h      ****  *
   3:.\main.h      ****  * Copyright Sen Li, Dec 2015
   4:.\main.h      ****  * All Rights Reserved
   5:.\main.h      ****  * UNPUBLISHED, LICENSED SOFTWARE.
   6:.\main.h      ****  *
   7:.\main.h      ****  * CONFIDENTIAL AND PROPRIETARY INFORMATION
   8:.\main.h      ****  * WHICH IS THE PROPERTY OF your company.
   9:.\main.h      ****  *
  10:.\main.h      ****  * ========================================
  11:.\main.h      **** */
  12:.\main.h      **** #include "LED_Control.h"
  13:.\main.h      **** #include "BLE_Process.h"
  14:.\main.h      **** #include "Sen_SPI_OF.h"
  15:.\main.h      **** 
  16:.\main.h      **** 
  17:.\main.h      **** extern uint8 deviceConnected;
  18:.\main.h      **** extern uint8 motionBurstStartNotification;
  19:.\main.h      **** extern uint8 imageBurstStartNotification;
  20:.\main.h      **** extern int8 motionReadTimes;
  21:.\main.h      **** 
  22:.\main.h      **** void Initialize_BLE_ISR_RGBLED_System(void);
  23:.\main.h      **** void SenMotionBurstHandler();
  24:.\main.h      **** 
  25:.\main.h      **** /* motionBurst Functions*/
  26:.\main.h      **** uint8 motionAccumulation = 0;
  27:.\main.h      **** 
  28:.\main.h      **** 
  29:.\main.h      **** 
  30:.\main.h      **** uint8 SenSerialReadBlocking(void);
  31:.\main.h      **** uint8 UART_ReadAvailableCheck(void);
  32:.\main.h      **** void loop(void);
ARM GAS  C:\Users\liziy\AppData\Local\Temp\ccERDFS5.s 			page 2


  33:.\main.h      **** void SenImageDisplay();
  34:.\main.h      **** void SenContinuousImageDisplay();
  35:.\main.h      **** void SenPixelsShowUp(void);
  36:.\main.h      **** 
  37:.\main.h      **** void SenReadCoodinataData(void);
  38:.\main.h      **** 
  39:.\main.h      **** void SenContinueMotionBurst(void)   {;}
  26              		.loc 1 39 0
  27              		.cfi_startproc
  28              		.loc 1 39 0
  29              		@ sp needed
  30 0000 7047     		bx	lr
  31              		.cfi_endproc
  32              	.LFE35:
  33              		.size	SenContinueMotionBurst, .-SenContinueMotionBurst
  34 0002 C046     		.section	.text.SenPixelsShowUp,"ax",%progbits
  35              		.align	2
  36              		.global	SenPixelsShowUp
  37              		.code	16
  38              		.thumb_func
  39              		.type	SenPixelsShowUp, %function
  40              	SenPixelsShowUp:
  41              	.LFB38:
  42              		.file 2 ".\\main.c"
   1:.\main.c      **** /* ========================================
   2:.\main.c      ****  *
   3:.\main.c      ****  * Copyright Sen Li, Dec 2015
   4:.\main.c      ****  * All Rights Reserved
   5:.\main.c      ****  * UNPUBLISHED, LICENSED SOFTWARE.
   6:.\main.c      ****  *
   7:.\main.c      ****  * CONFIDENTIAL AND PROPRIETARY INFORMATION
   8:.\main.c      ****  * WHICH IS THE PROPERTY OF your company.
   9:.\main.c      ****  *
  10:.\main.c      ****  * ========================================
  11:.\main.c      **** */
  12:.\main.c      **** 
  13:.\main.c      **** #include "main.h"
  14:.\main.c      **** 
  15:.\main.c      **** uint32 InterruptHpn;
  16:.\main.c      **** 
  17:.\main.c      **** int8 delta_X = 0;
  18:.\main.c      **** int8 delta_Y = 0;
  19:.\main.c      **** uint8 motionUpdateNeeded = FALSE;
  20:.\main.c      **** 
  21:.\main.c      **** 
  22:.\main.c      **** //uint8 first300Pixels[301];
  23:.\main.c      **** //uint8 second300Pixels[301];
  24:.\main.c      **** //uint8 third300Pixels[301];
  25:.\main.c      **** uint8 Pixels18Array[301];
  26:.\main.c      **** 
  27:.\main.c      **** int n=0, motionBurstCount=0;
  28:.\main.c      **** int initialing = 0;    // 1: yes;  0: No
  29:.\main.c      **** int initialNeeded = -1; // Re-Connection Initial is needed only at the point that "initialing" chan
  30:.\main.c      **** 
  31:.\main.c      **** CY_ISR(InterruptHandler)
  32:.\main.c      **** {
  33:.\main.c      ****     /* Check interrupt source and clear Inerrupt */
ARM GAS  C:\Users\liziy\AppData\Local\Temp\ccERDFS5.s 			page 3


  34:.\main.c      ****  	InterruptHpn = SenTimer_GetInterruptSourceMasked();
  35:.\main.c      ****    	if (InterruptHpn == SenTimer_INTR_MASK_TC)
  36:.\main.c      ****     {
  37:.\main.c      ****         SenTimer_ClearInterrupt(SenTimer_INTR_MASK_TC);
  38:.\main.c      **** 		
  39:.\main.c      **** 			/* Send Motion Burst data when respective notification is enabled */
  40:.\main.c      **** 			if(motionBurstStartNotification & NOTIFY_BIT_MASK)
  41:.\main.c      **** 			{
  42:.\main.c      **** //				SenReset();
  43:.\main.c      **** 				SenReadCoodinataData();
  44:.\main.c      **** 				
  45:.\main.c      **** //				if(TRUE == oneSecondPassed && TRUE == motionUpdateNeeded)
  46:.\main.c      **** 				if(motionReadTimes >= 20 && TRUE == motionUpdateNeeded)
  47:.\main.c      **** 				{
  48:.\main.c      **** 					motionUpdateNeeded = FALSE;
  49:.\main.c      **** 					/* Check for CapSense slider swipe and send data accordingly */
  50:.\main.c      **** 					SenMotionBurstHandler();
  51:.\main.c      **** 					motionReadTimes = 0;
  52:.\main.c      **** 				}
  53:.\main.c      **** 			}else {	delta_X = 0; delta_Y = 0;	}
  54:.\main.c      ****     }
  55:.\main.c      **** }
  56:.\main.c      **** 
  57:.\main.c      **** int main()
  58:.\main.c      **** {
  59:.\main.c      ****     CyGlobalIntEnable; /* Enable global interrupts. */
  60:.\main.c      **** 
  61:.\main.c      **** 	/* Start the components */
  62:.\main.c      **** 	Initialize_BLE_ISR_RGBLED_System();
  63:.\main.c      **** 	SPI_Master_Enable();
  64:.\main.c      **** 	initialNeeded = 1;
  65:.\main.c      ****     SPI_Master_Start();
  66:.\main.c      **** 
  67:.\main.c      **** 	Reset_Write(0);
  68:.\main.c      **** //	Reset2_Write(0);
  69:.\main.c      **** //	SenChipSelect();
  70:.\main.c      **** //	SenShowSetupData();
  71:.\main.c      ****        
  72:.\main.c      **** 	for(;;) {
  73:.\main.c      **** 		/* Process BLE Events. This generates events in the callback function */
  74:.\main.c      **** 		CyBle_ProcessEvents(); //***********************************************************
  75:.\main.c      **** 
  76:.\main.c      **** 		if(TRUE == deviceConnected)
  77:.\main.c      **** 		{			
  78:.\main.c      **** 			/* Send Image Burst data when respective notification is enabled */
  79:.\main.c      **** 			if(imageBurstStartNotification & NOTIFY_BIT_MASK)
  80:.\main.c      **** 			{
  81:.\main.c      **** //				Reset_Write(1);
  82:.\main.c      **** 				SenPixelsShowUp();// Read and save 900 Pixels
  83:.\main.c      **** //				imageBurstStartNotification = FALSE;
  84:.\main.c      **** 			}			
  85:.\main.c      **** 		}
  86:.\main.c      **** 	}
  87:.\main.c      **** }
  88:.\main.c      **** 
  89:.\main.c      **** void SenPixelsShowUp(void)
  90:.\main.c      **** {
ARM GAS  C:\Users\liziy\AppData\Local\Temp\ccERDFS5.s 			page 4


  43              		.loc 2 90 0
  44              		.cfi_startproc
  45 0000 38B5     		push	{r3, r4, r5, lr}
  46              		.cfi_def_cfa_offset 16
  47              		.cfi_offset 3, -16
  48              		.cfi_offset 4, -12
  49              		.cfi_offset 5, -8
  50              		.cfi_offset 14, -4
  51              	.LVL0:
  91:.\main.c      ****     int i,j,k;
  92:.\main.c      ****     int isFirstPixel = TRUE;
  93:.\main.c      ****     unsigned char regValue;
  94:.\main.c      ****     unsigned char pixelValue;
  95:.\main.c      **** 
  96:.\main.c      **** 	SenReset();
  52              		.loc 2 96 0
  53 0002 FFF7FEFF 		bl	SenReset
  54              	.LVL1:
  97:.\main.c      **** //	Reset_Write(0);
  98:.\main.c      ****     // write to frame capture register to force capture of frame
  99:.\main.c      ****     SenWriteReg(FRAME_CAPTURE,0x83);
  55              		.loc 2 99 0
  56 0006 1320     		mov	r0, #19
  57 0008 8321     		mov	r1, #131
  58 000a FFF7FEFF 		bl	SenWriteReg
  59              	.LVL2:
 100:.\main.c      **** 
 101:.\main.c      ****     // wait 3 frame periods + 10 nanoseconds for frame to be captured
 102:.\main.c      ****     CyDelayUs(1550);      // min frame speed is 2000 frames/second so 1 frame = 500 nano seconds.  
  60              		.loc 2 102 0
  61 000e 1248     		ldr	r0, .L7
  62 0010 FFF7FEFF 		bl	CyDelayUs
  63              	.LVL3:
 103:.\main.c      **** 		
 104:.\main.c      **** 		for(i=1; i<=3; i++)	{
  64              		.loc 2 104 0
  65 0014 0125     		mov	r5, #1
  66 0016 19E0     		b	.L3
  67              	.LVL4:
  68              	.L6:
 105:.\main.c      **** 			Pixels18Array[0] = i;
  69              		.loc 2 105 0
  70 0018 104B     		ldr	r3, .L7+4
  71 001a 1D70     		strb	r5, [r3]
  72              	.LVL5:
 106:.\main.c      **** 			for(j=1; j<=300; j++)	{
  73              		.loc 2 106 0
  74 001c 0124     		mov	r4, #1
  75 001e 0BE0     		b	.L4
  76              	.LVL6:
  77              	.L5:
 107:.\main.c      **** 				regValue = SenReadReg(FRAME_CAPTURE);
  78              		.loc 2 107 0 discriminator 3
  79 0020 1320     		mov	r0, #19
  80 0022 FFF7FEFF 		bl	SenReadReg
  81              	.LVL7:
 108:.\main.c      **** //	            if( isFirstPixel && (regValue & 0x40) == 0 ) {
ARM GAS  C:\Users\liziy\AppData\Local\Temp\ccERDFS5.s 			page 5


 109:.\main.c      **** //	                j = 18;	i = 50;
 110:.\main.c      **** //	            }
 111:.\main.c      **** 	            isFirstPixel = FALSE;
 112:.\main.c      **** 				
 113:.\main.c      **** 	            pixelValue = ( regValue << 2);
  82              		.loc 2 113 0 discriminator 3
  83 0026 8000     		lsl	r0, r0, #2
  84              	.LVL8:
 114:.\main.c      **** 				Pixels18Array[j] = pixelValue;
  85              		.loc 2 114 0 discriminator 3
  86 0028 0C4B     		ldr	r3, .L7+4
  87 002a 1855     		strb	r0, [r3, r4]
 115:.\main.c      **** 	            CyDelayUs(20);
  88              		.loc 2 115 0 discriminator 3
  89 002c 1420     		mov	r0, #20
  90              	.LVL9:
  91 002e FFF7FEFF 		bl	CyDelayUs
  92              	.LVL10:
 116:.\main.c      **** 				CyBle_ProcessEvents();
  93              		.loc 2 116 0 discriminator 3
  94 0032 FFF7FEFF 		bl	CyBle_ProcessEvents
  95              	.LVL11:
 106:.\main.c      **** 				regValue = SenReadReg(FRAME_CAPTURE);
  96              		.loc 2 106 0 discriminator 3
  97 0036 0134     		add	r4, r4, #1
  98              	.LVL12:
  99              	.L4:
 106:.\main.c      **** 				regValue = SenReadReg(FRAME_CAPTURE);
 100              		.loc 2 106 0 is_stmt 0 discriminator 1
 101 0038 9623     		mov	r3, #150
 102 003a 5B00     		lsl	r3, r3, #1
 103 003c 9C42     		cmp	r4, r3
 104 003e EFDD     		ble	.L5
 117:.\main.c      **** 			}
 118:.\main.c      **** 			Send18ArrayDataOverSenImageBurstNotification((uint8 *) Pixels18Array);
 105              		.loc 2 118 0 is_stmt 1 discriminator 2
 106 0040 0648     		ldr	r0, .L7+4
 107 0042 FFF7FEFF 		bl	Send18ArrayDataOverSenImageBurstNotification
 108              	.LVL13:
 119:.\main.c      **** 			CyBle_ProcessEvents();
 109              		.loc 2 119 0 discriminator 2
 110 0046 FFF7FEFF 		bl	CyBle_ProcessEvents
 111              	.LVL14:
 104:.\main.c      **** 			Pixels18Array[0] = i;
 112              		.loc 2 104 0 discriminator 2
 113 004a 0135     		add	r5, r5, #1
 114              	.LVL15:
 115              	.L3:
 104:.\main.c      **** 			Pixels18Array[0] = i;
 116              		.loc 2 104 0 is_stmt 0 discriminator 1
 117 004c 032D     		cmp	r5, #3
 118 004e E3DD     		ble	.L6
 120:.\main.c      **** 		}
 121:.\main.c      **** 		
 122:.\main.c      ****     // hardware reset to restore sensor to normal operation
 123:.\main.c      ****     SenReset();
 119              		.loc 2 123 0 is_stmt 1
ARM GAS  C:\Users\liziy\AppData\Local\Temp\ccERDFS5.s 			page 6


 120 0050 FFF7FEFF 		bl	SenReset
 121              	.LVL16:
 124:.\main.c      **** }
 122              		.loc 2 124 0
 123              		@ sp needed
 124              	.LVL17:
 125 0054 38BD     		pop	{r3, r4, r5, pc}
 126              	.L8:
 127 0056 C046     		.align	2
 128              	.L7:
 129 0058 0E060000 		.word	1550
 130 005c 00000000 		.word	Pixels18Array
 131              		.cfi_endproc
 132              	.LFE38:
 133              		.size	SenPixelsShowUp, .-SenPixelsShowUp
 134              		.section	.text.SenReadCoodinataData,"ax",%progbits
 135              		.align	2
 136              		.global	SenReadCoodinataData
 137              		.code	16
 138              		.thumb_func
 139              		.type	SenReadCoodinataData, %function
 140              	SenReadCoodinataData:
 141              	.LFB39:
 125:.\main.c      **** 
 126:.\main.c      **** /*********** Sen Motion-Tracking Mode **************/
 127:.\main.c      **** void SenReadCoodinataData(void){
 142              		.loc 2 127 0
 143              		.cfi_startproc
 144 0000 38B5     		push	{r3, r4, r5, lr}
 145              		.cfi_def_cfa_offset 16
 146              		.cfi_offset 3, -16
 147              		.cfi_offset 4, -12
 148              		.cfi_offset 5, -8
 149              		.cfi_offset 14, -4
 128:.\main.c      **** 
 129:.\main.c      ****     uint8 newMotion = SenReadReg(MOTION);
 150              		.loc 2 129 0
 151 0002 0220     		mov	r0, #2
 152 0004 FFF7FEFF 		bl	SenReadReg
 153              	.LVL18:
 130:.\main.c      ****     int8 newDelta_X = SenReadReg(DELTA_X);
 154              		.loc 2 130 0
 155 0008 0320     		mov	r0, #3
 156 000a FFF7FEFF 		bl	SenReadReg
 157              	.LVL19:
 158 000e 041C     		mov	r4, r0
 159 0010 C5B2     		uxtb	r5, r0
 160              	.LVL20:
 131:.\main.c      ****     int8 newDelta_Y = SenReadReg(DELTA_Y);
 161              		.loc 2 131 0
 162 0012 0420     		mov	r0, #4
 163 0014 FFF7FEFF 		bl	SenReadReg
 164              	.LVL21:
 165 0018 C3B2     		uxtb	r3, r0
 166              	.LVL22:
 132:.\main.c      ****     
 133:.\main.c      **** 	if (newDelta_X != 0 || newDelta_Y !=0)	{
ARM GAS  C:\Users\liziy\AppData\Local\Temp\ccERDFS5.s 			page 7


 167              		.loc 2 133 0
 168 001a 2B43     		orr	r3, r5
 169              	.LVL23:
 170 001c 08D0     		beq	.L10
 134:.\main.c      **** 		delta_X = delta_X + newDelta_X;
 171              		.loc 2 134 0
 172 001e 074B     		ldr	r3, .L11
 173 0020 1A78     		ldrb	r2, [r3]
 174 0022 A418     		add	r4, r4, r2
 175 0024 1C70     		strb	r4, [r3]
 135:.\main.c      **** 		delta_Y = delta_Y + newDelta_Y;
 176              		.loc 2 135 0
 177 0026 5A78     		ldrb	r2, [r3, #1]
 178 0028 8018     		add	r0, r0, r2
 179              	.LVL24:
 180 002a 5870     		strb	r0, [r3, #1]
 136:.\main.c      **** 		motionUpdateNeeded = TRUE;
 181              		.loc 2 136 0
 182 002c 0122     		mov	r2, #1
 183 002e 9A70     		strb	r2, [r3, #2]
 184              	.L10:
 137:.\main.c      **** 	}
 138:.\main.c      **** 	motionReadTimes = motionReadTimes + 1;
 185              		.loc 2 138 0
 186 0030 034A     		ldr	r2, .L11+4
 187 0032 1378     		ldrb	r3, [r2]
 188 0034 0133     		add	r3, r3, #1
 189 0036 1370     		strb	r3, [r2]
 139:.\main.c      **** }
 190              		.loc 2 139 0
 191              		@ sp needed
 192              	.LVL25:
 193 0038 38BD     		pop	{r3, r4, r5, pc}
 194              	.L12:
 195 003a C046     		.align	2
 196              	.L11:
 197 003c 00000000 		.word	.LANCHOR0
 198 0040 00000000 		.word	motionReadTimes
 199              		.cfi_endproc
 200              	.LFE39:
 201              		.size	SenReadCoodinataData, .-SenReadCoodinataData
 202              		.section	.text.SenMotionBurstHandler,"ax",%progbits
 203              		.align	2
 204              		.global	SenMotionBurstHandler
 205              		.code	16
 206              		.thumb_func
 207              		.type	SenMotionBurstHandler, %function
 208              	SenMotionBurstHandler:
 209              	.LFB40:
 140:.\main.c      **** 
 141:.\main.c      **** 
 142:.\main.c      **** void SenMotionBurstHandler() {
 210              		.loc 2 142 0
 211              		.cfi_startproc
 212 0000 10B5     		push	{r4, lr}
 213              		.cfi_def_cfa_offset 8
 214              		.cfi_offset 4, -8
ARM GAS  C:\Users\liziy\AppData\Local\Temp\ccERDFS5.s 			page 8


 215              		.cfi_offset 14, -4
 143:.\main.c      **** 		SendDataOverSenMotionBurstNotification((uint8)delta_X, (uint8)delta_Y);
 216              		.loc 2 143 0
 217 0002 044C     		ldr	r4, .L14
 218 0004 2078     		ldrb	r0, [r4]
 219 0006 6178     		ldrb	r1, [r4, #1]
 220 0008 FFF7FEFF 		bl	SendDataOverSenMotionBurstNotification
 221              	.LVL26:
 144:.\main.c      **** 		delta_X = 0;
 222              		.loc 2 144 0
 223 000c 0023     		mov	r3, #0
 224 000e 2370     		strb	r3, [r4]
 145:.\main.c      **** 		delta_Y = 0;
 225              		.loc 2 145 0
 226 0010 6370     		strb	r3, [r4, #1]
 146:.\main.c      **** }
 227              		.loc 2 146 0
 228              		@ sp needed
 229 0012 10BD     		pop	{r4, pc}
 230              	.L15:
 231              		.align	2
 232              	.L14:
 233 0014 00000000 		.word	.LANCHOR0
 234              		.cfi_endproc
 235              	.LFE40:
 236              		.size	SenMotionBurstHandler, .-SenMotionBurstHandler
 237              		.section	.text.InterruptHandler,"ax",%progbits
 238              		.align	2
 239              		.global	InterruptHandler
 240              		.code	16
 241              		.thumb_func
 242              		.type	InterruptHandler, %function
 243              	InterruptHandler:
 244              	.LFB36:
  32:.\main.c      ****     /* Check interrupt source and clear Inerrupt */
 245              		.loc 2 32 0
 246              		.cfi_startproc
 247 0000 10B5     		push	{r4, lr}
 248              		.cfi_def_cfa_offset 8
 249              		.cfi_offset 4, -8
 250              		.cfi_offset 14, -4
  34:.\main.c      ****    	if (InterruptHpn == SenTimer_INTR_MASK_TC)
 251              		.loc 2 34 0
 252 0002 FFF7FEFF 		bl	SenTimer_GetInterruptSourceMasked
 253              	.LVL27:
 254 0006 114B     		ldr	r3, .L19
 255 0008 1860     		str	r0, [r3]
  35:.\main.c      ****     {
 256              		.loc 2 35 0
 257 000a 0128     		cmp	r0, #1
 258 000c 1CD1     		bne	.L16
  37:.\main.c      **** 		
 259              		.loc 2 37 0
 260 000e FFF7FEFF 		bl	SenTimer_ClearInterrupt
 261              	.LVL28:
  40:.\main.c      **** 			{
 262              		.loc 2 40 0
ARM GAS  C:\Users\liziy\AppData\Local\Temp\ccERDFS5.s 			page 9


 263 0012 0F4B     		ldr	r3, .L19+4
 264 0014 1B78     		ldrb	r3, [r3]
 265 0016 DB07     		lsl	r3, r3, #31
 266 0018 12D5     		bpl	.L18
  43:.\main.c      **** 				
 267              		.loc 2 43 0
 268 001a FFF7FEFF 		bl	SenReadCoodinataData
 269              	.LVL29:
  46:.\main.c      **** 				{
 270              		.loc 2 46 0
 271 001e 0D4B     		ldr	r3, .L19+8
 272 0020 1B78     		ldrb	r3, [r3]
 273 0022 5BB2     		sxtb	r3, r3
 274 0024 132B     		cmp	r3, #19
 275 0026 0FDD     		ble	.L16
  46:.\main.c      **** 				{
 276              		.loc 2 46 0 is_stmt 0 discriminator 1
 277 0028 0B4B     		ldr	r3, .L19+12
 278 002a 9B78     		ldrb	r3, [r3, #2]
 279 002c 012B     		cmp	r3, #1
 280 002e 0BD1     		bne	.L16
  48:.\main.c      **** 					/* Check for CapSense slider swipe and send data accordingly */
 281              		.loc 2 48 0 is_stmt 1
 282 0030 0024     		mov	r4, #0
 283 0032 094B     		ldr	r3, .L19+12
 284 0034 9C70     		strb	r4, [r3, #2]
  50:.\main.c      **** 					motionReadTimes = 0;
 285              		.loc 2 50 0
 286 0036 FFF7FEFF 		bl	SenMotionBurstHandler
 287              	.LVL30:
  51:.\main.c      **** 				}
 288              		.loc 2 51 0
 289 003a 064B     		ldr	r3, .L19+8
 290 003c 1C70     		strb	r4, [r3]
 291 003e 03E0     		b	.L16
 292              	.L18:
  53:.\main.c      ****     }
 293              		.loc 2 53 0
 294 0040 054B     		ldr	r3, .L19+12
 295 0042 0022     		mov	r2, #0
 296 0044 1A70     		strb	r2, [r3]
 297 0046 5A70     		strb	r2, [r3, #1]
 298              	.L16:
  55:.\main.c      **** 
 299              		.loc 2 55 0
 300              		@ sp needed
 301 0048 10BD     		pop	{r4, pc}
 302              	.L20:
 303 004a C046     		.align	2
 304              	.L19:
 305 004c 00000000 		.word	InterruptHpn
 306 0050 00000000 		.word	motionBurstStartNotification
 307 0054 00000000 		.word	motionReadTimes
 308 0058 00000000 		.word	.LANCHOR0
 309              		.cfi_endproc
 310              	.LFE36:
 311              		.size	InterruptHandler, .-InterruptHandler
ARM GAS  C:\Users\liziy\AppData\Local\Temp\ccERDFS5.s 			page 10


 312              		.section	.text.Initialize_BLE_ISR_RGBLED_System,"ax",%progbits
 313              		.align	2
 314              		.global	Initialize_BLE_ISR_RGBLED_System
 315              		.code	16
 316              		.thumb_func
 317              		.type	Initialize_BLE_ISR_RGBLED_System, %function
 318              	Initialize_BLE_ISR_RGBLED_System:
 319              	.LFB41:
 147:.\main.c      **** 
 148:.\main.c      **** void Initialize_BLE_ISR_RGBLED_System(void) { 
 320              		.loc 2 148 0
 321              		.cfi_startproc
 322 0000 08B5     		push	{r3, lr}
 323              		.cfi_def_cfa_offset 8
 324              		.cfi_offset 3, -8
 325              		.cfi_offset 14, -4
 149:.\main.c      **** 	/* Enable Global Interrupt Mask */ 
 150:.\main.c      **** 	CyGlobalIntEnable; 
 326              		.loc 2 150 0
 327              	@ 150 ".\main.c" 1
 328 0002 62B6     		CPSIE   i
 329              	@ 0 "" 2
 151:.\main.c      **** 	
 152:.\main.c      **** 	/* Enable the Interrupt component connected to interrupt */
 153:.\main.c      ****     SenTimerISR_StartEx(InterruptHandler);
 330              		.loc 2 153 0
 331              		.code	16
 332 0004 0F48     		ldr	r0, .L22
 333 0006 FFF7FEFF 		bl	SenTimerISR_StartEx
 334              	.LVL31:
 154:.\main.c      **** 
 155:.\main.c      **** 	/* Start the components */
 156:.\main.c      ****     SenTimer_Start();
 335              		.loc 2 156 0
 336 000a FFF7FEFF 		bl	SenTimer_Start
 337              	.LVL32:
 157:.\main.c      **** 	
 158:.\main.c      **** 	/* Start BLE stack and register the event callback function.*/ 
 159:.\main.c      **** 	CyBle_Start(GeneralEventHandler); 
 338              		.loc 2 159 0
 339 000e 0E48     		ldr	r0, .L22+4
 340 0010 FFF7FEFF 		bl	CyBle_Start
 341              	.LVL33:
 160:.\main.c      **** 	
 161:.\main.c      **** 	/* Start PrISM modules for LED control */ 
 162:.\main.c      **** 	PrISM_1_Start(); 
 342              		.loc 2 162 0
 343 0014 FFF7FEFF 		bl	PrISM_1_Start
 344              	.LVL34:
 163:.\main.c      **** 	PrISM_2_Start(); 
 345              		.loc 2 163 0
 346 0018 FFF7FEFF 		bl	PrISM_2_Start
 347              	.LVL35:
 164:.\main.c      **** 	
 165:.\main.c      **** 	/* Switch off the RGB LEDs through PrISM modules */ 
 166:.\main.c      **** 	PrISM_1_WritePulse0(RGB_LED_OFF); 
 348              		.loc 2 166 0
ARM GAS  C:\Users\liziy\AppData\Local\Temp\ccERDFS5.s 			page 11


 349 001c FF20     		mov	r0, #255
 350 001e FFF7FEFF 		bl	PrISM_1_WritePulse0
 351              	.LVL36:
 167:.\main.c      **** 	PrISM_1_WritePulse1(RGB_LED_OFF); 
 352              		.loc 2 167 0
 353 0022 FF20     		mov	r0, #255
 354 0024 FFF7FEFF 		bl	PrISM_1_WritePulse1
 355              	.LVL37:
 168:.\main.c      **** 	PrISM_2_WritePulse0(RGB_LED_OFF); 
 356              		.loc 2 168 0
 357 0028 FF20     		mov	r0, #255
 358 002a FFF7FEFF 		bl	PrISM_2_WritePulse0
 359              	.LVL38:
 169:.\main.c      **** 	
 170:.\main.c      **** 	/* Set Drive modes of the output pins to Strong drive */ 
 171:.\main.c      **** 	RED_SetDriveMode(RED_DM_STRONG); 
 360              		.loc 2 171 0
 361 002e 0620     		mov	r0, #6
 362 0030 FFF7FEFF 		bl	RED_SetDriveMode
 363              	.LVL39:
 172:.\main.c      **** 	GREEN_SetDriveMode(GREEN_DM_STRONG); 
 364              		.loc 2 172 0
 365 0034 0620     		mov	r0, #6
 366 0036 FFF7FEFF 		bl	GREEN_SetDriveMode
 367              	.LVL40:
 173:.\main.c      **** 	BLUE_SetDriveMode(BLUE_DM_STRONG); 
 368              		.loc 2 173 0
 369 003a 0620     		mov	r0, #6
 370 003c FFF7FEFF 		bl	BLUE_SetDriveMode
 371              	.LVL41:
 174:.\main.c      **** }
 372              		.loc 2 174 0
 373              		@ sp needed
 374 0040 08BD     		pop	{r3, pc}
 375              	.L23:
 376 0042 C046     		.align	2
 377              	.L22:
 378 0044 00000000 		.word	InterruptHandler
 379 0048 00000000 		.word	GeneralEventHandler
 380              		.cfi_endproc
 381              	.LFE41:
 382              		.size	Initialize_BLE_ISR_RGBLED_System, .-Initialize_BLE_ISR_RGBLED_System
 383              		.section	.text.main,"ax",%progbits
 384              		.align	2
 385              		.global	main
 386              		.code	16
 387              		.thumb_func
 388              		.type	main, %function
 389              	main:
 390              	.LFB37:
  58:.\main.c      ****     CyGlobalIntEnable; /* Enable global interrupts. */
 391              		.loc 2 58 0
 392              		.cfi_startproc
 393 0000 08B5     		push	{r3, lr}
 394              		.cfi_def_cfa_offset 8
 395              		.cfi_offset 3, -8
 396              		.cfi_offset 14, -4
ARM GAS  C:\Users\liziy\AppData\Local\Temp\ccERDFS5.s 			page 12


  59:.\main.c      **** 
 397              		.loc 2 59 0
 398              	@ 59 ".\main.c" 1
 399 0002 62B6     		CPSIE   i
 400              	@ 0 "" 2
  62:.\main.c      **** 	SPI_Master_Enable();
 401              		.loc 2 62 0
 402              		.code	16
 403 0004 FFF7FEFF 		bl	Initialize_BLE_ISR_RGBLED_System
 404              	.LVL42:
  63:.\main.c      **** 	initialNeeded = 1;
 405              		.loc 2 63 0
 406 0008 FFF7FEFF 		bl	SPI_Master_Enable
 407              	.LVL43:
  64:.\main.c      ****     SPI_Master_Start();
 408              		.loc 2 64 0
 409 000c 0122     		mov	r2, #1
 410 000e 0A4B     		ldr	r3, .L27
 411 0010 1A60     		str	r2, [r3]
  65:.\main.c      **** 
 412              		.loc 2 65 0
 413 0012 FFF7FEFF 		bl	SPI_Master_Start
 414              	.LVL44:
  67:.\main.c      **** //	Reset2_Write(0);
 415              		.loc 2 67 0
 416 0016 0020     		mov	r0, #0
 417 0018 FFF7FEFF 		bl	Reset_Write
 418              	.LVL45:
 419              	.L25:
  74:.\main.c      **** 
 420              		.loc 2 74 0
 421 001c FFF7FEFF 		bl	CyBle_ProcessEvents
 422              	.LVL46:
  76:.\main.c      **** 		{			
 423              		.loc 2 76 0
 424 0020 064B     		ldr	r3, .L27+4
 425 0022 1B78     		ldrb	r3, [r3]
 426 0024 012B     		cmp	r3, #1
 427 0026 F9D1     		bne	.L25
  79:.\main.c      **** 			{
 428              		.loc 2 79 0
 429 0028 054B     		ldr	r3, .L27+8
 430 002a 1B78     		ldrb	r3, [r3]
 431 002c DB07     		lsl	r3, r3, #31
 432 002e F5D5     		bpl	.L25
  82:.\main.c      **** //				imageBurstStartNotification = FALSE;
 433              		.loc 2 82 0
 434 0030 FFF7FEFF 		bl	SenPixelsShowUp
 435              	.LVL47:
 436 0034 F2E7     		b	.L25
 437              	.L28:
 438 0036 C046     		.align	2
 439              	.L27:
 440 0038 00000000 		.word	.LANCHOR1
 441 003c 00000000 		.word	deviceConnected
 442 0040 00000000 		.word	imageBurstStartNotification
 443              		.cfi_endproc
ARM GAS  C:\Users\liziy\AppData\Local\Temp\ccERDFS5.s 			page 13


 444              	.LFE37:
 445              		.size	main, .-main
 446              		.section	.text.SenShowSetupData,"ax",%progbits
 447              		.align	2
 448              		.global	SenShowSetupData
 449              		.code	16
 450              		.thumb_func
 451              		.type	SenShowSetupData, %function
 452              	SenShowSetupData:
 453              	.LFB45:
 175:.\main.c      **** 
 176:.\main.c      **** 
 177:.\main.c      **** void loop(void) {
 178:.\main.c      ****    for(;;)
 179:.\main.c      ****    {
 180:.\main.c      **** //                SenEcho();
 181:.\main.c      ****         
 182:.\main.c      ****             if (initialNeeded == 0)  {
 183:.\main.c      ****               UART_UartPutString("Please Input:\r 0, Continuous Frames Pixels-Burst;\r 1, Only One 
 184:.\main.c      ****             }
 185:.\main.c      ****               //***********************************************************************************
 186:.\main.c      ****             if (initialNeeded == 1)  {
 187:.\main.c      ****                 UART_UartPutString("\r*************************************************************
 188:.\main.c      ****                 UART_UartPutString("                  Welcome to Sen PSoC Optical-Flow World\n"); 
 189:.\main.c      ****                 UART_UartPutString("*************************************************************\n
 190:.\main.c      ****                 SenShowSetupData();
 191:.\main.c      ****                 UART_UartPutString("Please Input:\r 0, Continuous Frames Pixels-Burst;\r 1, Only On
 192:.\main.c      ****                 initialNeeded = 0;
 193:.\main.c      ****             }
 194:.\main.c      ****             //*************************************************************************************
 195:.\main.c      ****           
 196:.\main.c      ****             uint8 input = 0;
 197:.\main.c      ****             input = SenSerialReadBlocking();
 198:.\main.c      ****             
 199:.\main.c      ****             if(input == 48)    {      // Continuous Frames Pixels      Num. 0 to start
 200:.\main.c      ****                 UART_UartPutString("Ready to Burst:\n");
 201:.\main.c      ****                 SenContinuousImageDisplay();
 202:.\main.c      ****             }else if (input == 49)    {// One Frame Pixels             Num. 1 to start
 203:.\main.c      ****                 SenChipSelect();
 204:.\main.c      ****                 SenImageDisplay();
 205:.\main.c      ****                 CyDelay(100);
 206:.\main.c      ****             }else if (input == 50)    {// MotionTracking               Num. 2 to start
 207:.\main.c      ****                 UART_UartPutString("\n");
 208:.\main.c      ****                 UART_UartPutString("SenMotionSprouting:\n");
 209:.\main.c      ****                 SenReset();
 210:.\main.c      ****                 SenReadCoodinataData();
 211:.\main.c      ****             }else if (input == 51)    {// MotionBurst                  Num. 3 to start
 212:.\main.c      ****                 SenContinueMotionBurst();
 213:.\main.c      ****             }else if (input == 113)    {// Quit Request                 Letter q to quit, disconnec
 214:.\main.c      ****                UART_UartPutString("I'm Sen Stop Request!\n");
 215:.\main.c      ****                UART_UartPutString("Now the input is: ");
 216:.\main.c      ****                UART_UartPutChar(input);
 217:.\main.c      ****                UART_UartPutString("\n");
 218:.\main.c      ****             }else  {
 219:.\main.c      ****                	UART_UartPutString("Now the input is: ");
 220:.\main.c      **** 				UART_UartPutChar(input);
 221:.\main.c      ****             }
ARM GAS  C:\Users\liziy\AppData\Local\Temp\ccERDFS5.s 			page 14


 222:.\main.c      ****             UART_UartPutString("\n");
 223:.\main.c      ****             CyDelay(500);
 224:.\main.c      **** 
 225:.\main.c      ****    }
 226:.\main.c      **** }
 227:.\main.c      **** 
 228:.\main.c      **** 
 229:.\main.c      **** 
 230:.\main.c      **** uint8 SenSerialReadBlocking(void){
 231:.\main.c      ****     uint8 input = (uint8)-1;
 232:.\main.c      ****     int initialConfirmCount = 0;
 233:.\main.c      ****     
 234:.\main.c      ****     if (initialing == 0)  {     
 235:.\main.c      ****       //  while(input == -1 || input < 0)  { 
 236:.\main.c      ****         while(input == (uint8)-1)  { 
 237:.\main.c      ****           if (initialNeeded == 1)  {
 238:.\main.c      ****               if (++initialConfirmCount >= SEN_RECONNECTION_CONFIRM_NUM)
 239:.\main.c      ****                   loop();             
 240:.\main.c      ****           }else   {
 241:.\main.c      ****               initialConfirmCount = 0;
 242:.\main.c      ****           }
 243:.\main.c      ****           input = UART_UartGetByte();
 244:.\main.c      ****           if (input == (uint8)-2)  {
 245:.\main.c      ****               initialing = 1;      
 246:.\main.c      ****           }
 247:.\main.c      ****         }
 248:.\main.c      ****     }
 249:.\main.c      ****     
 250:.\main.c      ****     /*****************  For Re-Connection detection  **************************/
 251:.\main.c      ****     if (initialing == 1)  {
 252:.\main.c      ****           initialConfirmCount = 0;
 253:.\main.c      ****           if (input == (uint8)-1)  {  // Nothing been read, initialing finished
 254:.\main.c      ****               initialing = 0;
 255:.\main.c      ****               initialNeeded = 1;
 256:.\main.c      ****           }
 257:.\main.c      ****           SenSerialReadBlocking();    
 258:.\main.c      ****     }        
 259:.\main.c      ****     /*****************  For Re-Connection detection  **************************/
 260:.\main.c      ****     
 261:.\main.c      ****     return input;
 262:.\main.c      **** }
 263:.\main.c      **** 
 264:.\main.c      **** void SenEcho(void)      {
 265:.\main.c      ****        uint8 input = SenSerialReadBlocking();
 266:.\main.c      ****        UART_UartPutChar(input);
 267:.\main.c      ****        UART_UartPutString("\n");
 268:.\main.c      ****        CyDelayUs(50);
 269:.\main.c      **** }
 270:.\main.c      **** 
 271:.\main.c      **** void SenShowSetupData(void){
 454              		.loc 2 271 0
 455              		.cfi_startproc
 456 0000 38B5     		push	{r3, r4, r5, lr}
 457              		.cfi_def_cfa_offset 16
 458              		.cfi_offset 3, -16
 459              		.cfi_offset 4, -12
 460              		.cfi_offset 5, -8
ARM GAS  C:\Users\liziy\AppData\Local\Temp\ccERDFS5.s 			page 15


 461              		.cfi_offset 14, -4
 272:.\main.c      ****        uint8 productID = SenReadReg(REG_PRODUCT_ID);
 462              		.loc 2 272 0
 463 0002 0020     		mov	r0, #0
 464 0004 FFF7FEFF 		bl	SenReadReg
 465              	.LVL48:
 466 0008 041C     		mov	r4, r0
 467              	.LVL49:
 273:.\main.c      ****        UART_UartPutString("ProductID = 0x");
 468              		.loc 2 273 0
 469 000a 0848     		ldr	r0, .L32
 470 000c FFF7FEFF 		bl	UART_UartPutString
 471              	.LVL50:
 274:.\main.c      ****         if (productID)  {
 472              		.loc 2 274 0
 473 0010 002C     		cmp	r4, #0
 474 0012 03D0     		beq	.L30
 275:.\main.c      ****                 SenUartPutHexDecimalByte(productID);
 475              		.loc 2 275 0
 476 0014 201C     		mov	r0, r4
 477 0016 FFF7FEFF 		bl	SenUartPutHexDecimalByte
 478              	.LVL51:
 479 001a 02E0     		b	.L31
 480              	.L30:
 276:.\main.c      ****         }else   UART_UartPutString("00");
 481              		.loc 2 276 0
 482 001c 0448     		ldr	r0, .L32+4
 483 001e FFF7FEFF 		bl	UART_UartPutString
 484              	.LVL52:
 485              	.L31:
 277:.\main.c      ****        UART_UartPutString(".\n");
 486              		.loc 2 277 0
 487 0022 0448     		ldr	r0, .L32+8
 488 0024 FFF7FEFF 		bl	UART_UartPutString
 489              	.LVL53:
 278:.\main.c      **** }
 490              		.loc 2 278 0
 491              		@ sp needed
 492              	.LVL54:
 493 0028 38BD     		pop	{r3, r4, r5, pc}
 494              	.L33:
 495 002a C046     		.align	2
 496              	.L32:
 497 002c 00000000 		.word	.LC13
 498 0030 10000000 		.word	.LC15
 499 0034 14000000 		.word	.LC17
 500              		.cfi_endproc
 501              	.LFE45:
 502              		.size	SenShowSetupData, .-SenShowSetupData
 503              		.section	.text.SenImageDisplay,"ax",%progbits
 504              		.align	2
 505              		.global	SenImageDisplay
 506              		.code	16
 507              		.thumb_func
 508              		.type	SenImageDisplay, %function
 509              	SenImageDisplay:
 510              	.LFB46:
ARM GAS  C:\Users\liziy\AppData\Local\Temp\ccERDFS5.s 			page 16


 279:.\main.c      **** 
 280:.\main.c      **** 
 281:.\main.c      **** /*********** Sen Pixel-Burst Mode **************/
 282:.\main.c      **** void SenImageDisplay()
 283:.\main.c      **** {
 511              		.loc 2 283 0
 512              		.cfi_startproc
 513 0000 08B5     		push	{r3, lr}
 514              		.cfi_def_cfa_offset 8
 515              		.cfi_offset 3, -8
 516              		.cfi_offset 14, -4
 284:.\main.c      ****     UART_UartPutString("image data\n");
 517              		.loc 2 284 0
 518 0002 0448     		ldr	r0, .L35
 519 0004 FFF7FEFF 		bl	UART_UartPutString
 520              	.LVL55:
 285:.\main.c      ****     SenPixelsShowUp();
 521              		.loc 2 285 0
 522 0008 FFF7FEFF 		bl	SenPixelsShowUp
 523              	.LVL56:
 286:.\main.c      ****     UART_UartPutString("----------\n");
 524              		.loc 2 286 0
 525 000c 0248     		ldr	r0, .L35+4
 526 000e FFF7FEFF 		bl	UART_UartPutString
 527              	.LVL57:
 287:.\main.c      **** }
 528              		.loc 2 287 0
 529              		@ sp needed
 530 0012 08BD     		pop	{r3, pc}
 531              	.L36:
 532              		.align	2
 533              	.L35:
 534 0014 18000000 		.word	.LC19
 535 0018 24000000 		.word	.LC21
 536              		.cfi_endproc
 537              	.LFE46:
 538              		.size	SenImageDisplay, .-SenImageDisplay
 539              		.section	.text.UART_ReadAvailableCheck,"ax",%progbits
 540              		.align	2
 541              		.global	UART_ReadAvailableCheck
 542              		.code	16
 543              		.thumb_func
 544              		.type	UART_ReadAvailableCheck, %function
 545              	UART_ReadAvailableCheck:
 546              	.LFB48:
 288:.\main.c      **** 
 289:.\main.c      **** void SenContinuousImageDisplay()
 290:.\main.c      **** {
 291:.\main.c      ****     int i, burstCount = 0;
 292:.\main.c      ****     SPI_Master_SpiUartClearTxBuffer();// Serial.flush();
 293:.\main.c      **** 
 294:.\main.c      ****     while( !UART_ReadAvailableCheck() ) {
 295:.\main.c      ****         SenImageDisplay();
 296:.\main.c      ****     }
 297:.\main.c      ****     CyDelay(50);
 298:.\main.c      ****     SPI_Master_SpiUartClearTxBuffer();// Serial.flush();
 299:.\main.c      **** }
ARM GAS  C:\Users\liziy\AppData\Local\Temp\ccERDFS5.s 			page 17


 300:.\main.c      **** 
 301:.\main.c      **** 
 302:.\main.c      **** uint8 UART_ReadAvailableCheck(void)
 303:.\main.c      **** {
 547              		.loc 2 303 0
 548              		.cfi_startproc
 549 0000 08B5     		push	{r3, lr}
 550              		.cfi_def_cfa_offset 8
 551              		.cfi_offset 3, -8
 552              		.cfi_offset 14, -4
 304:.\main.c      ****         return (0u != UART_SpiUartGetRxBufferSize()) ;
 553              		.loc 2 304 0
 554 0002 FFF7FEFF 		bl	UART_SpiUartGetRxBufferSize
 555              	.LVL58:
 556 0006 431E     		sub	r3, r0, #1
 557 0008 9841     		sbc	r0, r0, r3
 558 000a C0B2     		uxtb	r0, r0
 305:.\main.c      **** }
 559              		.loc 2 305 0
 560              		@ sp needed
 561 000c 08BD     		pop	{r3, pc}
 562              		.cfi_endproc
 563              	.LFE48:
 564              		.size	UART_ReadAvailableCheck, .-UART_ReadAvailableCheck
 565 000e C046     		.section	.text.SenContinuousImageDisplay,"ax",%progbits
 566              		.align	2
 567              		.global	SenContinuousImageDisplay
 568              		.code	16
 569              		.thumb_func
 570              		.type	SenContinuousImageDisplay, %function
 571              	SenContinuousImageDisplay:
 572              	.LFB47:
 290:.\main.c      ****     int i, burstCount = 0;
 573              		.loc 2 290 0
 574              		.cfi_startproc
 575 0000 08B5     		push	{r3, lr}
 576              		.cfi_def_cfa_offset 8
 577              		.cfi_offset 3, -8
 578              		.cfi_offset 14, -4
 579              	.LVL59:
 292:.\main.c      **** 
 580              		.loc 2 292 0
 581 0002 FFF7FEFF 		bl	SPI_Master_SpiUartClearTxBuffer
 582              	.LVL60:
 294:.\main.c      ****         SenImageDisplay();
 583              		.loc 2 294 0
 584 0006 01E0     		b	.L39
 585              	.L40:
 295:.\main.c      ****     }
 586              		.loc 2 295 0
 587 0008 FFF7FEFF 		bl	SenImageDisplay
 588              	.LVL61:
 589              	.L39:
 294:.\main.c      ****         SenImageDisplay();
 590              		.loc 2 294 0
 591 000c FFF7FEFF 		bl	UART_ReadAvailableCheck
 592              	.LVL62:
ARM GAS  C:\Users\liziy\AppData\Local\Temp\ccERDFS5.s 			page 18


 593 0010 0028     		cmp	r0, #0
 594 0012 F9D0     		beq	.L40
 297:.\main.c      ****     SPI_Master_SpiUartClearTxBuffer();// Serial.flush();
 595              		.loc 2 297 0
 596 0014 3220     		mov	r0, #50
 597 0016 FFF7FEFF 		bl	CyDelay
 598              	.LVL63:
 298:.\main.c      **** }
 599              		.loc 2 298 0
 600 001a FFF7FEFF 		bl	SPI_Master_SpiUartClearTxBuffer
 601              	.LVL64:
 299:.\main.c      **** 
 602              		.loc 2 299 0
 603              		@ sp needed
 604 001e 08BD     		pop	{r3, pc}
 605              		.cfi_endproc
 606              	.LFE47:
 607              		.size	SenContinuousImageDisplay, .-SenContinuousImageDisplay
 608              		.section	.text.loop,"ax",%progbits
 609              		.align	2
 610              		.global	loop
 611              		.code	16
 612              		.thumb_func
 613              		.type	loop, %function
 614              	loop:
 615              	.LFB42:
 177:.\main.c      ****    for(;;)
 616              		.loc 2 177 0
 617              		.cfi_startproc
 618 0000 10B5     		push	{r4, lr}
 619              		.cfi_def_cfa_offset 8
 620              		.cfi_offset 4, -8
 621              		.cfi_offset 14, -4
 622              	.L49:
 623              	.LBB2:
 182:.\main.c      ****               UART_UartPutString("Please Input:\r 0, Continuous Frames Pixels-Burst;\r 1, Only One 
 624              		.loc 2 182 0
 625 0002 2E4B     		ldr	r3, .L50
 626 0004 1B68     		ldr	r3, [r3]
 627 0006 002B     		cmp	r3, #0
 628 0008 02D1     		bne	.L42
 183:.\main.c      ****             }
 629              		.loc 2 183 0
 630 000a 2D48     		ldr	r0, .L50+4
 631 000c FFF7FEFF 		bl	UART_UartPutString
 632              	.LVL65:
 633              	.L42:
 186:.\main.c      ****                 UART_UartPutString("\r*************************************************************
 634              		.loc 2 186 0
 635 0010 2A4B     		ldr	r3, .L50
 636 0012 1B68     		ldr	r3, [r3]
 637 0014 012B     		cmp	r3, #1
 638 0016 10D1     		bne	.L43
 187:.\main.c      ****                 UART_UartPutString("                  Welcome to Sen PSoC Optical-Flow World\n"); 
 639              		.loc 2 187 0
 640 0018 2A48     		ldr	r0, .L50+8
 641 001a FFF7FEFF 		bl	UART_UartPutString
ARM GAS  C:\Users\liziy\AppData\Local\Temp\ccERDFS5.s 			page 19


 642              	.LVL66:
 188:.\main.c      ****                 UART_UartPutString("*************************************************************\n
 643              		.loc 2 188 0
 644 001e 2A48     		ldr	r0, .L50+12
 645 0020 FFF7FEFF 		bl	UART_UartPutString
 646              	.LVL67:
 189:.\main.c      ****                 SenShowSetupData();
 647              		.loc 2 189 0
 648 0024 2948     		ldr	r0, .L50+16
 649 0026 FFF7FEFF 		bl	UART_UartPutString
 650              	.LVL68:
 190:.\main.c      ****                 UART_UartPutString("Please Input:\r 0, Continuous Frames Pixels-Burst;\r 1, Only On
 651              		.loc 2 190 0
 652 002a FFF7FEFF 		bl	SenShowSetupData
 653              	.LVL69:
 191:.\main.c      ****                 initialNeeded = 0;
 654              		.loc 2 191 0
 655 002e 2848     		ldr	r0, .L50+20
 656 0030 FFF7FEFF 		bl	UART_UartPutString
 657              	.LVL70:
 192:.\main.c      ****             }
 658              		.loc 2 192 0
 659 0034 0022     		mov	r2, #0
 660 0036 214B     		ldr	r3, .L50
 661 0038 1A60     		str	r2, [r3]
 662              	.L43:
 663              	.LVL71:
 197:.\main.c      ****             
 664              		.loc 2 197 0
 665 003a FFF7FEFF 		bl	SenSerialReadBlocking
 666              	.LVL72:
 667 003e 041E     		sub	r4, r0, #0
 668              	.LVL73:
 199:.\main.c      ****                 UART_UartPutString("Ready to Burst:\n");
 669              		.loc 2 199 0
 670 0040 302C     		cmp	r4, #48
 671 0042 05D1     		bne	.L44
 200:.\main.c      ****                 SenContinuousImageDisplay();
 672              		.loc 2 200 0
 673 0044 2348     		ldr	r0, .L50+24
 674              	.LVL74:
 675 0046 FFF7FEFF 		bl	UART_UartPutString
 676              	.LVL75:
 201:.\main.c      ****             }else if (input == 49)    {// One Frame Pixels             Num. 1 to start
 677              		.loc 2 201 0
 678 004a FFF7FEFF 		bl	SenContinuousImageDisplay
 679              	.LVL76:
 680 004e 2DE0     		b	.L45
 681              	.LVL77:
 682              	.L44:
 202:.\main.c      ****                 SenChipSelect();
 683              		.loc 2 202 0
 684 0050 3128     		cmp	r0, #49
 685 0052 07D1     		bne	.L46
 203:.\main.c      ****                 SenImageDisplay();
 686              		.loc 2 203 0
 687 0054 FFF7FEFF 		bl	SenChipSelect
ARM GAS  C:\Users\liziy\AppData\Local\Temp\ccERDFS5.s 			page 20


 688              	.LVL78:
 204:.\main.c      ****                 CyDelay(100);
 689              		.loc 2 204 0
 690 0058 FFF7FEFF 		bl	SenImageDisplay
 691              	.LVL79:
 205:.\main.c      ****             }else if (input == 50)    {// MotionTracking               Num. 2 to start
 692              		.loc 2 205 0
 693 005c 6420     		mov	r0, #100
 694 005e FFF7FEFF 		bl	CyDelay
 695              	.LVL80:
 696 0062 23E0     		b	.L45
 697              	.LVL81:
 698              	.L46:
 206:.\main.c      ****                 UART_UartPutString("\n");
 699              		.loc 2 206 0
 700 0064 3228     		cmp	r0, #50
 701 0066 0AD1     		bne	.L47
 207:.\main.c      ****                 UART_UartPutString("SenMotionSprouting:\n");
 702              		.loc 2 207 0
 703 0068 1B48     		ldr	r0, .L50+28
 704              	.LVL82:
 705 006a FFF7FEFF 		bl	UART_UartPutString
 706              	.LVL83:
 208:.\main.c      ****                 SenReset();
 707              		.loc 2 208 0
 708 006e 1B48     		ldr	r0, .L50+32
 709 0070 FFF7FEFF 		bl	UART_UartPutString
 710              	.LVL84:
 209:.\main.c      ****                 SenReadCoodinataData();
 711              		.loc 2 209 0
 712 0074 FFF7FEFF 		bl	SenReset
 713              	.LVL85:
 210:.\main.c      ****             }else if (input == 51)    {// MotionBurst                  Num. 3 to start
 714              		.loc 2 210 0
 715 0078 FFF7FEFF 		bl	SenReadCoodinataData
 716              	.LVL86:
 717 007c 16E0     		b	.L45
 718              	.LVL87:
 719              	.L47:
 211:.\main.c      ****                 SenContinueMotionBurst();
 720              		.loc 2 211 0
 721 007e 3328     		cmp	r0, #51
 722 0080 14D0     		beq	.L45
 213:.\main.c      ****                UART_UartPutString("I'm Sen Stop Request!\n");
 723              		.loc 2 213 0
 724 0082 7128     		cmp	r0, #113
 725 0084 0CD1     		bne	.L48
 214:.\main.c      ****                UART_UartPutString("Now the input is: ");
 726              		.loc 2 214 0
 727 0086 1648     		ldr	r0, .L50+36
 728              	.LVL88:
 729 0088 FFF7FEFF 		bl	UART_UartPutString
 730              	.LVL89:
 215:.\main.c      ****                UART_UartPutChar(input);
 731              		.loc 2 215 0
 732 008c 1548     		ldr	r0, .L50+40
 733 008e FFF7FEFF 		bl	UART_UartPutString
ARM GAS  C:\Users\liziy\AppData\Local\Temp\ccERDFS5.s 			page 21


 734              	.LVL90:
 216:.\main.c      ****                UART_UartPutString("\n");
 735              		.loc 2 216 0
 736 0092 201C     		mov	r0, r4
 737 0094 FFF7FEFF 		bl	UART_SpiUartWriteTxData
 738              	.LVL91:
 217:.\main.c      ****             }else  {
 739              		.loc 2 217 0
 740 0098 0F48     		ldr	r0, .L50+28
 741 009a FFF7FEFF 		bl	UART_UartPutString
 742              	.LVL92:
 743 009e 05E0     		b	.L45
 744              	.LVL93:
 745              	.L48:
 219:.\main.c      **** 				UART_UartPutChar(input);
 746              		.loc 2 219 0
 747 00a0 1048     		ldr	r0, .L50+40
 748              	.LVL94:
 749 00a2 FFF7FEFF 		bl	UART_UartPutString
 750              	.LVL95:
 220:.\main.c      ****             }
 751              		.loc 2 220 0
 752 00a6 201C     		mov	r0, r4
 753 00a8 FFF7FEFF 		bl	UART_SpiUartWriteTxData
 754              	.LVL96:
 755              	.L45:
 222:.\main.c      ****             CyDelay(500);
 756              		.loc 2 222 0
 757 00ac 0A48     		ldr	r0, .L50+28
 758 00ae FFF7FEFF 		bl	UART_UartPutString
 759              	.LVL97:
 223:.\main.c      **** 
 760              		.loc 2 223 0
 761 00b2 FA20     		mov	r0, #250
 762 00b4 4000     		lsl	r0, r0, #1
 763 00b6 FFF7FEFF 		bl	CyDelay
 764              	.LVL98:
 765              	.LBE2:
 225:.\main.c      **** }
 766              		.loc 2 225 0
 767 00ba A2E7     		b	.L49
 768              	.L51:
 769              		.align	2
 770              	.L50:
 771 00bc 00000000 		.word	.LANCHOR1
 772 00c0 30000000 		.word	.LC24
 773 00c4 BC000000 		.word	.LC26
 774 00c8 FC000000 		.word	.LC28
 775 00cc 38010000 		.word	.LC30
 776 00d0 78010000 		.word	.LC32
 777 00d4 08020000 		.word	.LC34
 778 00d8 1C020000 		.word	.LC36
 779 00dc 20020000 		.word	.LC38
 780 00e0 38020000 		.word	.LC40
 781 00e4 50020000 		.word	.LC42
 782              		.cfi_endproc
 783              	.LFE42:
ARM GAS  C:\Users\liziy\AppData\Local\Temp\ccERDFS5.s 			page 22


 784              		.size	loop, .-loop
 785              		.section	.text.SenSerialReadBlocking,"ax",%progbits
 786              		.align	2
 787              		.global	SenSerialReadBlocking
 788              		.code	16
 789              		.thumb_func
 790              		.type	SenSerialReadBlocking, %function
 791              	SenSerialReadBlocking:
 792              	.LFB43:
 230:.\main.c      ****     uint8 input = (uint8)-1;
 793              		.loc 2 230 0
 794              		.cfi_startproc
 795 0000 38B5     		push	{r3, r4, r5, lr}
 796              		.cfi_def_cfa_offset 16
 797              		.cfi_offset 3, -16
 798              		.cfi_offset 4, -12
 799              		.cfi_offset 5, -8
 800              		.cfi_offset 14, -4
 801              	.LVL99:
 234:.\main.c      ****       //  while(input == -1 || input < 0)  { 
 802              		.loc 2 234 0
 803 0002 174B     		ldr	r3, .L62
 804 0004 5B68     		ldr	r3, [r3, #4]
 805 0006 002B     		cmp	r3, #0
 806 0008 15D0     		beq	.L60
 231:.\main.c      ****     int initialConfirmCount = 0;
 807              		.loc 2 231 0
 808 000a FF24     		mov	r4, #255
 809 000c 17E0     		b	.L54
 810              	.LVL100:
 811              	.L57:
 237:.\main.c      ****               if (++initialConfirmCount >= SEN_RECONNECTION_CONFIRM_NUM)
 812              		.loc 2 237 0
 813 000e 154B     		ldr	r3, .L62+4
 814 0010 1B68     		ldr	r3, [r3]
 815 0012 012B     		cmp	r3, #1
 816 0014 05D1     		bne	.L61
 238:.\main.c      ****                   loop();             
 817              		.loc 2 238 0
 818 0016 0135     		add	r5, r5, #1
 819              	.LVL101:
 820 0018 134B     		ldr	r3, .L62+8
 821 001a 9D42     		cmp	r5, r3
 822 001c 02DD     		ble	.L55
 239:.\main.c      ****           }else   {
 823              		.loc 2 239 0
 824 001e FFF7FEFF 		bl	loop
 825              	.LVL102:
 826              	.L61:
 241:.\main.c      ****           }
 827              		.loc 2 241 0
 828 0022 0025     		mov	r5, #0
 829              	.LVL103:
 830              	.L55:
 243:.\main.c      ****           if (input == (uint8)-2)  {
 831              		.loc 2 243 0
 832 0024 FFF7FEFF 		bl	UART_UartGetByte
ARM GAS  C:\Users\liziy\AppData\Local\Temp\ccERDFS5.s 			page 23


 833              	.LVL104:
 834 0028 C4B2     		uxtb	r4, r0
 835              	.LVL105:
 244:.\main.c      ****               initialing = 1;      
 836              		.loc 2 244 0
 837 002a FE2C     		cmp	r4, #254
 838 002c 05D1     		bne	.L53
 245:.\main.c      ****           }
 839              		.loc 2 245 0
 840 002e 0122     		mov	r2, #1
 841 0030 0B4B     		ldr	r3, .L62
 842 0032 5A60     		str	r2, [r3, #4]
 843 0034 01E0     		b	.L53
 844              	.LVL106:
 845              	.L60:
 846 0036 0025     		mov	r5, #0
 847 0038 FF24     		mov	r4, #255
 848              	.LVL107:
 849              	.L53:
 236:.\main.c      ****           if (initialNeeded == 1)  {
 850              		.loc 2 236 0
 851 003a FF2C     		cmp	r4, #255
 852 003c E7D0     		beq	.L57
 853              	.LVL108:
 854              	.L54:
 251:.\main.c      ****           initialConfirmCount = 0;
 855              		.loc 2 251 0
 856 003e 084B     		ldr	r3, .L62
 857 0040 5B68     		ldr	r3, [r3, #4]
 858 0042 012B     		cmp	r3, #1
 859 0044 09D1     		bne	.L58
 860              	.LVL109:
 253:.\main.c      ****               initialing = 0;
 861              		.loc 2 253 0
 862 0046 FF2C     		cmp	r4, #255
 863 0048 05D1     		bne	.L59
 254:.\main.c      ****               initialNeeded = 1;
 864              		.loc 2 254 0
 865 004a 0022     		mov	r2, #0
 866 004c 044B     		ldr	r3, .L62
 867 004e 5A60     		str	r2, [r3, #4]
 255:.\main.c      ****           }
 868              		.loc 2 255 0
 869 0050 0132     		add	r2, r2, #1
 870 0052 044B     		ldr	r3, .L62+4
 871 0054 1A60     		str	r2, [r3]
 872              	.L59:
 257:.\main.c      ****     }        
 873              		.loc 2 257 0
 874 0056 FFF7FEFF 		bl	SenSerialReadBlocking
 875              	.LVL110:
 876              	.L58:
 262:.\main.c      **** 
 877              		.loc 2 262 0
 878 005a 201C     		mov	r0, r4
 879              		@ sp needed
 880              	.LVL111:
ARM GAS  C:\Users\liziy\AppData\Local\Temp\ccERDFS5.s 			page 24


 881 005c 38BD     		pop	{r3, r4, r5, pc}
 882              	.L63:
 883 005e C046     		.align	2
 884              	.L62:
 885 0060 00000000 		.word	.LANCHOR0
 886 0064 00000000 		.word	.LANCHOR1
 887 0068 DB050000 		.word	1499
 888              		.cfi_endproc
 889              	.LFE43:
 890              		.size	SenSerialReadBlocking, .-SenSerialReadBlocking
 891              		.section	.text.SenEcho,"ax",%progbits
 892              		.align	2
 893              		.global	SenEcho
 894              		.code	16
 895              		.thumb_func
 896              		.type	SenEcho, %function
 897              	SenEcho:
 898              	.LFB44:
 264:.\main.c      ****        uint8 input = SenSerialReadBlocking();
 899              		.loc 2 264 0
 900              		.cfi_startproc
 901 0000 08B5     		push	{r3, lr}
 902              		.cfi_def_cfa_offset 8
 903              		.cfi_offset 3, -8
 904              		.cfi_offset 14, -4
 265:.\main.c      ****        UART_UartPutChar(input);
 905              		.loc 2 265 0
 906 0002 FFF7FEFF 		bl	SenSerialReadBlocking
 907              	.LVL112:
 266:.\main.c      ****        UART_UartPutString("\n");
 908              		.loc 2 266 0
 909 0006 FFF7FEFF 		bl	UART_SpiUartWriteTxData
 910              	.LVL113:
 267:.\main.c      ****        CyDelayUs(50);
 911              		.loc 2 267 0
 912 000a 0348     		ldr	r0, .L65
 913 000c FFF7FEFF 		bl	UART_UartPutString
 914              	.LVL114:
 268:.\main.c      **** }
 915              		.loc 2 268 0
 916 0010 3220     		mov	r0, #50
 917 0012 FFF7FEFF 		bl	CyDelayUs
 918              	.LVL115:
 269:.\main.c      **** 
 919              		.loc 2 269 0
 920              		@ sp needed
 921 0016 08BD     		pop	{r3, pc}
 922              	.L66:
 923              		.align	2
 924              	.L65:
 925 0018 1C020000 		.word	.LC36
 926              		.cfi_endproc
 927              	.LFE44:
 928              		.size	SenEcho, .-SenEcho
 929              		.global	initialNeeded
 930              		.global	initialing
 931              		.global	motionBurstCount
ARM GAS  C:\Users\liziy\AppData\Local\Temp\ccERDFS5.s 			page 25


 932              		.global	n
 933              		.comm	Pixels18Array,301,4
 934              		.global	motionUpdateNeeded
 935              		.global	delta_Y
 936              		.global	delta_X
 937              		.comm	InterruptHpn,4,4
 938              		.global	motionAccumulation
 939              		.data
 940              		.align	2
 941              		.set	.LANCHOR1,. + 0
 942              		.type	initialNeeded, %object
 943              		.size	initialNeeded, 4
 944              	initialNeeded:
 945 0000 FFFFFFFF 		.word	-1
 946              		.section	.rodata.str1.4,"aMS",%progbits,1
 947              		.align	2
 948              	.LC13:
 949 0000 50726F64 		.ascii	"ProductID = 0x\000"
 949      75637449 
 949      44203D20 
 949      307800
 950 000f 00       		.space	1
 951              	.LC15:
 952 0010 303000   		.ascii	"00\000"
 953 0013 00       		.space	1
 954              	.LC17:
 955 0014 2E0A00   		.ascii	".\012\000"
 956 0017 00       		.space	1
 957              	.LC19:
 958 0018 696D6167 		.ascii	"image data\012\000"
 958      65206461 
 958      74610A00 
 959              	.LC21:
 960 0024 2D2D2D2D 		.ascii	"----------\012\000"
 960      2D2D2D2D 
 960      2D2D0A00 
 961              	.LC24:
 962 0030 506C6561 		.ascii	"Please Input:\015 0, Continuous Frames Pixels-Burst"
 962      73652049 
 962      6E707574 
 962      3A0D2030 
 962      2C20436F 
 963 0060 3B0D2031 		.ascii	";\015 1, Only One Frame Pixels-Burst;\015 2, Motion"
 963      2C204F6E 
 963      6C79204F 
 963      6E652046 
 963      72616D65 
 964 008d 20547261 		.ascii	" Tracking and Recording;\012 3, Sen Motion Burst.\000"
 964      636B696E 
 964      6720616E 
 964      64205265 
 964      636F7264 
 965              	.LC26:
 966 00bc 0D2A2A2A 		.ascii	"\015***********************************************"
 966      2A2A2A2A 
 966      2A2A2A2A 
 966      2A2A2A2A 
ARM GAS  C:\Users\liziy\AppData\Local\Temp\ccERDFS5.s 			page 26


 966      2A2A2A2A 
 967 00ec 2A2A2A2A 		.ascii	"**************\012\000"
 967      2A2A2A2A 
 967      2A2A2A2A 
 967      2A2A0A00 
 968              	.LC28:
 969 00fc 20202020 		.ascii	"                  Welcome to Sen PSoC Optical-Flow "
 969      20202020 
 969      20202020 
 969      20202020 
 969      20205765 
 970 012f 576F726C 		.ascii	"World\012\000"
 970      640A00
 971 0136 0000     		.space	2
 972              	.LC30:
 973 0138 2A2A2A2A 		.ascii	"***************************************************"
 973      2A2A2A2A 
 973      2A2A2A2A 
 973      2A2A2A2A 
 973      2A2A2A2A 
 974 016b 2A2A2A2A 		.ascii	"**********\012\000"
 974      2A2A2A2A 
 974      2A2A0A00 
 975 0177 00       		.space	1
 976              	.LC32:
 977 0178 506C6561 		.ascii	"Please Input:\015 0, Continuous Frames Pixels-Burst"
 977      73652049 
 977      6E707574 
 977      3A0D2030 
 977      2C20436F 
 978 01a8 3B0D2031 		.ascii	";\015 1, Only One Frame Pixels-Burst;\015 2, Motion"
 978      2C204F6E 
 978      6C79204F 
 978      6E652046 
 978      72616D65 
 979 01d5 20547261 		.ascii	" Tracking and Recording;\012 3, Sen Motion Burst.\012"
 979      636B696E 
 979      6720616E 
 979      64205265 
 979      636F7264 
 980 0204 00       		.ascii	"\000"
 981 0205 000000   		.space	3
 982              	.LC34:
 983 0208 52656164 		.ascii	"Ready to Burst:\012\000"
 983      7920746F 
 983      20427572 
 983      73743A0A 
 983      00
 984 0219 000000   		.space	3
 985              	.LC36:
 986 021c 0A00     		.ascii	"\012\000"
 987 021e 0000     		.space	2
 988              	.LC38:
 989 0220 53656E4D 		.ascii	"SenMotionSprouting:\012\000"
 989      6F74696F 
 989      6E537072 
 989      6F757469 
ARM GAS  C:\Users\liziy\AppData\Local\Temp\ccERDFS5.s 			page 27


 989      6E673A0A 
 990 0235 000000   		.space	3
 991              	.LC40:
 992 0238 49276D20 		.ascii	"I'm Sen Stop Request!\012\000"
 992      53656E20 
 992      53746F70 
 992      20526571 
 992      75657374 
 993 024f 00       		.space	1
 994              	.LC42:
 995 0250 4E6F7720 		.ascii	"Now the input is: \000"
 995      74686520 
 995      696E7075 
 995      74206973 
 995      3A2000
 996 0263 00       		.bss
 997              		.align	2
 998              		.set	.LANCHOR0,. + 0
 999              		.type	delta_X, %object
 1000              		.size	delta_X, 1
 1001              	delta_X:
 1002 0000 00       		.space	1
 1003              		.type	delta_Y, %object
 1004              		.size	delta_Y, 1
 1005              	delta_Y:
 1006 0001 00       		.space	1
 1007              		.type	motionUpdateNeeded, %object
 1008              		.size	motionUpdateNeeded, 1
 1009              	motionUpdateNeeded:
 1010 0002 00       		.space	1
 1011 0003 00       		.space	1
 1012              		.type	initialing, %object
 1013              		.size	initialing, 4
 1014              	initialing:
 1015 0004 00000000 		.space	4
 1016              		.type	motionBurstCount, %object
 1017              		.size	motionBurstCount, 4
 1018              	motionBurstCount:
 1019 0008 00000000 		.space	4
 1020              		.type	n, %object
 1021              		.size	n, 4
 1022              	n:
 1023 000c 00000000 		.space	4
 1024              		.type	motionAccumulation, %object
 1025              		.size	motionAccumulation, 1
 1026              	motionAccumulation:
 1027 0010 00       		.space	1
 1028 0011 000000   		.text
 1029              	.Letext0:
 1030              		.file 3 "Generated_Source\\PSoC4/cytypes.h"
 1031              		.file 4 "Generated_Source\\PSoC4/SenBLE_Stack.h"
 1032              		.file 5 "Generated_Source\\PSoC4/SenBLE.h"
 1033              		.file 6 ".\\Sen_SPI_OF.h"
 1034              		.file 7 "Generated_Source\\PSoC4/CyLib.h"
 1035              		.file 8 ".\\BLE_Process.h"
 1036              		.file 9 "Generated_Source\\PSoC4/SenTimer.h"
 1037              		.file 10 "Generated_Source\\PSoC4/SenTimerISR.h"
ARM GAS  C:\Users\liziy\AppData\Local\Temp\ccERDFS5.s 			page 28


 1038              		.file 11 "Generated_Source\\PSoC4/PrISM_1.h"
 1039              		.file 12 "Generated_Source\\PSoC4/PrISM_2.h"
 1040              		.file 13 "Generated_Source\\PSoC4/RED.h"
 1041              		.file 14 "Generated_Source\\PSoC4/GREEN.h"
 1042              		.file 15 "Generated_Source\\PSoC4/BLUE.h"
 1043              		.file 16 "Generated_Source\\PSoC4/SPI_Master.h"
 1044              		.file 17 "Generated_Source\\PSoC4/Reset.h"
 1045              		.file 18 "Generated_Source\\PSoC4/UART_SPI_UART.h"
 1046              		.file 19 "Generated_Source\\PSoC4/SPI_Master_SPI_UART.h"