ARM GAS  C:\Users\liziy\AppData\Local\Temp\ccn18UJe.s 			page 1


   1              		.cpu cortex-m0
   2              		.fpu softvfp
   3              		.eabi_attribute 20, 1
   4              		.eabi_attribute 21, 1
   5              		.eabi_attribute 23, 3
   6              		.eabi_attribute 24, 1
   7              		.eabi_attribute 25, 1
   8              		.eabi_attribute 26, 1
   9              		.eabi_attribute 30, 1
  10              		.eabi_attribute 34, 0
  11              		.eabi_attribute 18, 4
  12              		.code	16
  13              		.file	"Sen_SPI_OF.c"
  14              		.text
  15              	.Ltext0:
  16              		.cfi_sections	.debug_frame
  17              		.section	.text.SenDeselectChip,"ax",%progbits
  18              		.align	2
  19              		.global	SenDeselectChip
  20              		.code	16
  21              		.thumb_func
  22              		.type	SenDeselectChip, %function
  23              	SenDeselectChip:
  24              	.LFB35:
  25              		.file 1 ".\\Sen_SPI_OF.c"
   1:.\Sen_SPI_OF.c **** /* ========================================
   2:.\Sen_SPI_OF.c ****  *
   3:.\Sen_SPI_OF.c ****  * Copyright YOUR COMPANY, THE YEAR
   4:.\Sen_SPI_OF.c ****  * All Rights Reserved
   5:.\Sen_SPI_OF.c ****  * UNPUBLISHED, LICENSED SOFTWARE.
   6:.\Sen_SPI_OF.c ****  *
   7:.\Sen_SPI_OF.c ****  * CONFIDENTIAL AND PROPRIETARY INFORMATION
   8:.\Sen_SPI_OF.c ****  * WHICH IS THE PROPERTY OF your company.
   9:.\Sen_SPI_OF.c ****  *
  10:.\Sen_SPI_OF.c ****  * ========================================
  11:.\Sen_SPI_OF.c **** */
  12:.\Sen_SPI_OF.c **** 
  13:.\Sen_SPI_OF.c **** /* [] END OF FILE */
  14:.\Sen_SPI_OF.c **** 
  15:.\Sen_SPI_OF.c **** #include "Sen_SPI_OF.h"
  16:.\Sen_SPI_OF.c **** 
  17:.\Sen_SPI_OF.c **** 
  18:.\Sen_SPI_OF.c **** void SenDeselectChip(void){
  26              		.loc 1 18 0
  27              		.cfi_startproc
  28 0000 08B5     		push	{r3, lr}
  29              		.cfi_def_cfa_offset 8
  30              		.cfi_offset 3, -8
  31              		.cfi_offset 14, -4
  19:.\Sen_SPI_OF.c ****   SS_Write(1);
  32              		.loc 1 19 0
  33 0002 0120     		mov	r0, #1
  34 0004 FFF7FEFF 		bl	SS_Write
  35              	.LVL0:
  20:.\Sen_SPI_OF.c **** //  SPI_Master_SpiSetActiveSlaveSelect(0x01u);
  21:.\Sen_SPI_OF.c **** }
  36              		.loc 1 21 0
ARM GAS  C:\Users\liziy\AppData\Local\Temp\ccn18UJe.s 			page 2


  37              		@ sp needed
  38 0008 08BD     		pop	{r3, pc}
  39              		.cfi_endproc
  40              	.LFE35:
  41              		.size	SenDeselectChip, .-SenDeselectChip
  42              		.section	.text.SenChipSelect,"ax",%progbits
  43              		.align	2
  44              		.global	SenChipSelect
  45              		.code	16
  46              		.thumb_func
  47              		.type	SenChipSelect, %function
  48              	SenChipSelect:
  49              	.LFB36:
  22:.\Sen_SPI_OF.c **** 
  23:.\Sen_SPI_OF.c **** void SenChipSelect(void){
  50              		.loc 1 23 0
  51              		.cfi_startproc
  52 0000 08B5     		push	{r3, lr}
  53              		.cfi_def_cfa_offset 8
  54              		.cfi_offset 3, -8
  55              		.cfi_offset 14, -4
  24:.\Sen_SPI_OF.c ****   	SS_Write(0);
  56              		.loc 1 24 0
  57 0002 0020     		mov	r0, #0
  58 0004 FFF7FEFF 		bl	SS_Write
  59              	.LVL1:
  25:.\Sen_SPI_OF.c **** //  SPI_Master_SpiSetActiveSlaveSelect(0x00u);
  26:.\Sen_SPI_OF.c **** }
  60              		.loc 1 26 0
  61              		@ sp needed
  62 0008 08BD     		pop	{r3, pc}
  63              		.cfi_endproc
  64              	.LFE36:
  65              		.size	SenChipSelect, .-SenChipSelect
  66 000a C046     		.section	.text.SenReset,"ax",%progbits
  67              		.align	2
  68              		.global	SenReset
  69              		.code	16
  70              		.thumb_func
  71              		.type	SenReset, %function
  72              	SenReset:
  73              	.LFB37:
  27:.\Sen_SPI_OF.c ****   
  28:.\Sen_SPI_OF.c **** void SenReset(void){
  74              		.loc 1 28 0
  75              		.cfi_startproc
  76 0000 08B5     		push	{r3, lr}
  77              		.cfi_def_cfa_offset 8
  78              		.cfi_offset 3, -8
  79              		.cfi_offset 14, -4
  29:.\Sen_SPI_OF.c ****     SenChipSelect();
  80              		.loc 1 29 0
  81 0002 FFF7FEFF 		bl	SenChipSelect
  82              	.LVL2:
  30:.\Sen_SPI_OF.c ****     CyDelayUs(50);
  83              		.loc 1 30 0
  84 0006 3220     		mov	r0, #50
ARM GAS  C:\Users\liziy\AppData\Local\Temp\ccn18UJe.s 			page 3


  85 0008 FFF7FEFF 		bl	CyDelayUs
  86              	.LVL3:
  31:.\Sen_SPI_OF.c ****     Reset_Write(1);                 // reset sensor
  87              		.loc 1 31 0
  88 000c 0120     		mov	r0, #1
  89 000e FFF7FEFF 		bl	Reset_Write
  90              	.LVL4:
  32:.\Sen_SPI_OF.c ****     CyDelayUs(75);
  91              		.loc 1 32 0
  92 0012 4B20     		mov	r0, #75
  93 0014 FFF7FEFF 		bl	CyDelayUs
  94              	.LVL5:
  33:.\Sen_SPI_OF.c ****     Reset_Write(0);                     // return sensor to normal
  95              		.loc 1 33 0
  96 0018 0020     		mov	r0, #0
  97 001a FFF7FEFF 		bl	Reset_Write
  98              	.LVL6:
  34:.\Sen_SPI_OF.c ****     SenDeselectChip(); 
  99              		.loc 1 34 0
 100 001e FFF7FEFF 		bl	SenDeselectChip
 101              	.LVL7:
  35:.\Sen_SPI_OF.c ****     SenChipSelect();
 102              		.loc 1 35 0
 103 0022 FFF7FEFF 		bl	SenChipSelect
 104              	.LVL8:
  36:.\Sen_SPI_OF.c **** }
 105              		.loc 1 36 0
 106              		@ sp needed
 107 0026 08BD     		pop	{r3, pc}
 108              		.cfi_endproc
 109              	.LFE37:
 110              		.size	SenReset, .-SenReset
 111              		.section	.text.SenSPI_Transfer,"ax",%progbits
 112              		.align	2
 113              		.global	SenSPI_Transfer
 114              		.code	16
 115              		.thumb_func
 116              		.type	SenSPI_Transfer, %function
 117              	SenSPI_Transfer:
 118              	.LFB38:
  37:.\Sen_SPI_OF.c **** 
  38:.\Sen_SPI_OF.c **** uint32 SenSPI_Transfer(uint8 fixedAddress){
 119              		.loc 1 38 0
 120              		.cfi_startproc
 121              	.LVL9:
 122 0000 08B5     		push	{r3, lr}
 123              		.cfi_def_cfa_offset 8
 124              		.cfi_offset 3, -8
 125              		.cfi_offset 14, -4
  39:.\Sen_SPI_OF.c ****   SPI_Master_SpiUartWriteTxData((uint32)fixedAddress);
 126              		.loc 1 39 0
 127 0002 FFF7FEFF 		bl	SPI_Master_SpiUartWriteTxData
 128              	.LVL10:
  40:.\Sen_SPI_OF.c ****   CyDelayUs(6);
 129              		.loc 1 40 0
 130 0006 0620     		mov	r0, #6
 131 0008 FFF7FEFF 		bl	CyDelayUs
ARM GAS  C:\Users\liziy\AppData\Local\Temp\ccn18UJe.s 			page 4


 132              	.LVL11:
  41:.\Sen_SPI_OF.c ****   uint32 readBuffer = SPI_Master_SpiUartReadRxData();
 133              		.loc 1 41 0
 134 000c FFF7FEFF 		bl	SPI_Master_SpiUartReadRxData
 135              	.LVL12:
  42:.\Sen_SPI_OF.c **** 
  43:.\Sen_SPI_OF.c ****   return readBuffer;
  44:.\Sen_SPI_OF.c **** }  
 136              		.loc 1 44 0
 137              		@ sp needed
 138 0010 08BD     		pop	{r3, pc}
 139              		.cfi_endproc
 140              	.LFE38:
 141              		.size	SenSPI_Transfer, .-SenSPI_Transfer
 142 0012 C046     		.section	.text.SenUartPutHexDecimalByte,"ax",%progbits
 143              		.align	2
 144              		.global	SenUartPutHexDecimalByte
 145              		.code	16
 146              		.thumb_func
 147              		.type	SenUartPutHexDecimalByte, %function
 148              	SenUartPutHexDecimalByte:
 149              	.LFB39:
  45:.\Sen_SPI_OF.c **** 
  46:.\Sen_SPI_OF.c **** void SenUartPutHexDecimalByte(uint8 dataByte) {
 150              		.loc 1 46 0
 151              		.cfi_startproc
 152              	.LVL13:
 153 0000 10B5     		push	{r4, lr}
 154              		.cfi_def_cfa_offset 8
 155              		.cfi_offset 4, -8
 156              		.cfi_offset 14, -4
 157 0002 041C     		mov	r4, r0
 158              	.LVL14:
  47:.\Sen_SPI_OF.c **** 	uint8 temp = dataByte;
  48:.\Sen_SPI_OF.c **** 	temp = temp >> 4;
 159              		.loc 1 48 0
 160 0004 0009     		lsr	r0, r0, #4
 161              	.LVL15:
  49:.\Sen_SPI_OF.c **** 	if(temp>9)      temp+=('A'-10);
 162              		.loc 1 49 0
 163 0006 0928     		cmp	r0, #9
 164 0008 01D9     		bls	.L6
 165              		.loc 1 49 0 is_stmt 0 discriminator 1
 166 000a 3730     		add	r0, r0, #55
 167              	.LVL16:
 168 000c 00E0     		b	.L7
 169              	.L6:
  50:.\Sen_SPI_OF.c **** 	else temp += '0';
 170              		.loc 1 50 0 is_stmt 1
 171 000e 3030     		add	r0, r0, #48
 172              	.LVL17:
 173              	.L7:
  51:.\Sen_SPI_OF.c ****         
  52:.\Sen_SPI_OF.c **** 	UART_UartPutChar(temp);
 174              		.loc 1 52 0
 175 0010 FFF7FEFF 		bl	UART_SpiUartWriteTxData
 176              	.LVL18:
ARM GAS  C:\Users\liziy\AppData\Local\Temp\ccn18UJe.s 			page 5


  53:.\Sen_SPI_OF.c ****         
  54:.\Sen_SPI_OF.c **** 	dataByte = dataByte & 0x0f;
 177              		.loc 1 54 0
 178 0014 0F20     		mov	r0, #15
 179 0016 0440     		and	r4, r0
 180              	.LVL19:
  55:.\Sen_SPI_OF.c **** 	if(dataByte > 9)        dataByte+=('A'-10);
 181              		.loc 1 55 0
 182 0018 092C     		cmp	r4, #9
 183 001a 02D9     		bls	.L8
 184              		.loc 1 55 0 is_stmt 0 discriminator 1
 185 001c 201C     		mov	r0, r4
 186 001e 3730     		add	r0, r0, #55
 187              	.LVL20:
 188 0020 01E0     		b	.L9
 189              	.LVL21:
 190              	.L8:
  56:.\Sen_SPI_OF.c **** 	else    dataByte += '0';
 191              		.loc 1 56 0 is_stmt 1
 192 0022 201C     		mov	r0, r4
 193 0024 3030     		add	r0, r0, #48
 194              	.LVL22:
 195              	.L9:
  57:.\Sen_SPI_OF.c ****         
  58:.\Sen_SPI_OF.c **** 	UART_UartPutChar(dataByte);
 196              		.loc 1 58 0
 197 0026 FFF7FEFF 		bl	UART_SpiUartWriteTxData
 198              	.LVL23:
  59:.\Sen_SPI_OF.c **** }
 199              		.loc 1 59 0
 200              		@ sp needed
 201 002a 10BD     		pop	{r4, pc}
 202              		.cfi_endproc
 203              	.LFE39:
 204              		.size	SenUartPutHexDecimalByte, .-SenUartPutHexDecimalByte
 205              		.section	.text.SenReadReg,"ax",%progbits
 206              		.align	2
 207              		.global	SenReadReg
 208              		.code	16
 209              		.thumb_func
 210              		.type	SenReadReg, %function
 211              	SenReadReg:
 212              	.LFB40:
  60:.\Sen_SPI_OF.c **** 
  61:.\Sen_SPI_OF.c **** uint8 SenReadReg(uint8 fixedAddress){
 213              		.loc 1 61 0
 214              		.cfi_startproc
 215              	.LVL24:
 216 0000 10B5     		push	{r4, lr}
 217              		.cfi_def_cfa_offset 8
 218              		.cfi_offset 4, -8
 219              		.cfi_offset 14, -4
 220              	.LVL25:
  62:.\Sen_SPI_OF.c **** 	uint8 regValue = 0x00u;
  63:.\Sen_SPI_OF.c **** 	fixedAddress &= (uint8)~(1 << 7);
 221              		.loc 1 63 0
 222 0002 7F24     		mov	r4, #127
ARM GAS  C:\Users\liziy\AppData\Local\Temp\ccn18UJe.s 			page 6


 223 0004 0440     		and	r4, r0
 224              	.LVL26:
  64:.\Sen_SPI_OF.c **** 	SenChipSelect();
 225              		.loc 1 64 0
 226 0006 FFF7FEFF 		bl	SenChipSelect
 227              	.LVL27:
  65:.\Sen_SPI_OF.c **** 
  66:.\Sen_SPI_OF.c **** 	SenSPI_Transfer(fixedAddress);
 228              		.loc 1 66 0
 229 000a 201C     		mov	r0, r4
 230 000c FFF7FEFF 		bl	SenSPI_Transfer
 231              	.LVL28:
  67:.\Sen_SPI_OF.c **** 	CyDelayUs(50);
 232              		.loc 1 67 0
 233 0010 3220     		mov	r0, #50
 234 0012 FFF7FEFF 		bl	CyDelayUs
 235              	.LVL29:
  68:.\Sen_SPI_OF.c **** 	regValue = SenSPI_Transfer(0x00);
 236              		.loc 1 68 0
 237 0016 0020     		mov	r0, #0
 238 0018 FFF7FEFF 		bl	SenSPI_Transfer
 239              	.LVL30:
 240 001c C4B2     		uxtb	r4, r0
 241              	.LVL31:
  69:.\Sen_SPI_OF.c **** 
  70:.\Sen_SPI_OF.c ****         SenDeselectChip();
 242              		.loc 1 70 0
 243 001e FFF7FEFF 		bl	SenDeselectChip
 244              	.LVL32:
  71:.\Sen_SPI_OF.c **** 
  72:.\Sen_SPI_OF.c **** //        CyDelayUs(75);
  73:.\Sen_SPI_OF.c **** 	return (regValue);
  74:.\Sen_SPI_OF.c **** }
 245              		.loc 1 74 0
 246 0022 201C     		mov	r0, r4
 247              		@ sp needed
 248              	.LVL33:
 249 0024 10BD     		pop	{r4, pc}
 250              		.cfi_endproc
 251              	.LFE40:
 252              		.size	SenReadReg, .-SenReadReg
 253 0026 C046     		.section	.text.SenWriteReg,"ax",%progbits
 254              		.align	2
 255              		.global	SenWriteReg
 256              		.code	16
 257              		.thumb_func
 258              		.type	SenWriteReg, %function
 259              	SenWriteReg:
 260              	.LFB41:
  75:.\Sen_SPI_OF.c **** 
  76:.\Sen_SPI_OF.c **** void SenWriteReg(uint8 fixedAddress, uint8 dataValue){
 261              		.loc 1 76 0
 262              		.cfi_startproc
 263              	.LVL34:
 264 0000 38B5     		push	{r3, r4, r5, lr}
 265              		.cfi_def_cfa_offset 16
 266              		.cfi_offset 3, -16
ARM GAS  C:\Users\liziy\AppData\Local\Temp\ccn18UJe.s 			page 7


 267              		.cfi_offset 4, -12
 268              		.cfi_offset 5, -8
 269              		.cfi_offset 14, -4
 270 0002 051C     		mov	r5, r0
 271 0004 0C1C     		mov	r4, r1
  77:.\Sen_SPI_OF.c ****   SenChipSelect();
 272              		.loc 1 77 0
 273 0006 FFF7FEFF 		bl	SenChipSelect
 274              	.LVL35:
  78:.\Sen_SPI_OF.c ****   SenSPI_Transfer(fixedAddress | 0x80 );   // send register address
 275              		.loc 1 78 0
 276 000a 8020     		mov	r0, #128
 277 000c 2843     		orr	r0, r5
 278 000e FFF7FEFF 		bl	SenSPI_Transfer
 279              	.LVL36:
  79:.\Sen_SPI_OF.c ****   CyDelayUs(50);                  // small delay
 280              		.loc 1 79 0
 281 0012 3220     		mov	r0, #50
 282 0014 FFF7FEFF 		bl	CyDelayUs
 283              	.LVL37:
  80:.\Sen_SPI_OF.c ****   SenSPI_Transfer(dataValue);             // send data
 284              		.loc 1 80 0
 285 0018 201C     		mov	r0, r4
 286 001a FFF7FEFF 		bl	SenSPI_Transfer
 287              	.LVL38:
  81:.\Sen_SPI_OF.c ****   SenDeselectChip(); 
 288              		.loc 1 81 0
 289 001e FFF7FEFF 		bl	SenDeselectChip
 290              	.LVL39:
  82:.\Sen_SPI_OF.c **** }              ...
 291              		.loc 1 82 0
 292              		@ sp needed
 293 0022 38BD     		pop	{r3, r4, r5, pc}
 294              		.cfi_endproc
 295              	.LFE41:
 296              		.size	SenWriteReg, .-SenWriteReg
 297              		.text
 298              	.Letext0:
 299              		.file 2 "Generated_Source\\PSoC4/cytypes.h"
 300              		.file 3 "Generated_Source\\PSoC4/SS.h"
 301              		.file 4 "Generated_Source\\PSoC4/CyLib.h"
 302              		.file 5 "Generated_Source\\PSoC4/Reset.h"
 303              		.file 6 "Generated_Source\\PSoC4/SPI_Master_SPI_UART.h"
 304              		.file 7 "Generated_Source\\PSoC4/UART_SPI_UART.h"